(lp1
(dp2
S'KLP AksjeFremvoksende Markeder Indeks II'
p3
(lp4
S'NOK'
p5
aS'2.3032'
p6
aS'1530.48'
p7
aS'3525'
p8
aS'2.59'
p9
aS'1496.00'
p10
aS'3446'
p11
aS'-2.25'
p12
aS'-79'
p13
asS'Alfred Berg Nordisk Eiendom C'
p14
(lp15
S'NOK'
p16
aS'48.1003'
p17
aS'109.65'
p18
aS'5274'
p19
aS'0.21'
p20
aS'103.91'
p21
aS'4998'
p22
aS'-5.23'
p23
aS'-276'
p24
asS'Alfred Berg Gambak'
p25
(lp26
S'NOK'
p27
aS'0.1916'
p28
aS'22645.21'
p29
aS'4339'
p30
aS'0.76'
p31
aS'24773.59'
p32
aS'4747'
p33
aS'9.40'
p34
aS'408'
p35
asS'Delphi Nordic'
p36
(lp37
S'NOK'
p38
aS'0.1398'
p39
aS'29816.29'
p40
aS'4168'
p41
aS'1.47'
p42
aS'28781.84'
p43
aS'4024'
p44
aS'-3.47'
p45
aS'-145'
p46
asS'date'
p47
(lp48
F1478623967.4808011
aS'08.11.16'
p49
asS'KLP AksjeGlobal Indeks IV A'
p50
(lp51
S'NOK'
p52
aS'2.6544'
p53
aS'1744.27'
p54
aS'4630'
p55
aS'1.88'
p56
aS'1708.77'
p57
aS'4536'
p58
aS'-2.04'
p59
aS'-94'
p60
asS'SKAGEN Focus A'
p61
(lp62
S'NOK'
p63
aS'62.9584'
p64
aS'98.24'
p65
aS'6185'
p66
aS'1.55'
p67
aS'98.11'
p68
aS'6177'
p69
aS'-0.13'
p70
aS'-8'
p71
asS'DNB Teknologi'
p72
(lp73
S'NOK'
p74
aS'5.3025'
p75
aS'925.87'
p76
aS'4909'
p77
aS'2.52'
p78
aS'963.65'
p79
aS'5110'
p80
aS'4.08'
p81
aS'200'
p82
asa(dp83
S'KLP AksjeFremvoksende Markeder Indeks II'
p84
(lp85
S'NOK'
p86
aS'2.3032'
p87
aS'1530.48'
p88
aS'3525'
p89
aS'0.45'
p90
aS'1502.78'
p91
aS'3461'
p92
aS'-1.81'
p93
aS'-64'
p94
asS'Alfred Berg Nordisk Eiendom C'
p95
(lp96
S'NOK'
p97
aS'48.1003'
p98
aS'109.65'
p99
aS'5274'
p100
aS'0.50'
p101
aS'104.43'
p102
aS'5023'
p103
aS'-4.76'
p104
aS'-251'
p105
asS'Alfred Berg Gambak'
p106
(lp107
S'NOK'
p108
aS'0.1916'
p109
aS'22645.21'
p110
aS'4339'
p111
aS'0.18'
p112
aS'24819.05'
p113
aS'4755'
p114
aS'9.60'
p115
aS'417'
p116
asS'Delphi Nordic'
p117
(lp118
S'NOK'
p119
aS'0.1398'
p120
aS'29816.29'
p121
aS'4168'
p122
aS'-0.93'
p123
aS'28514.87'
p124
aS'3986'
p125
aS'-4.36'
p126
aS'-182'
p127
asS'date'
p128
(lp129
F1478701920.1436191
aS'09.11.16'
p130
asS'KLP AksjeGlobal Indeks IV A'
p131
(lp132
S'NOK'
p133
aS'2.6544'
p134
aS'1744.27'
p135
aS'4630'
p136
aS'0.36'
p137
aS'1714.84'
p138
aS'4552'
p139
aS'-1.69'
p140
aS'-78'
p141
asS'SKAGEN Focus A'
p142
(lp143
S'NOK'
p144
aS'62.9584'
p145
aS'98.24'
p146
aS'6185'
p147
aS'-0.12'
p148
aS'98.00'
p149
aS'6170'
p150
aS'-0.25'
p151
aS'-15'
p152
asg72
(lp153
S'NOK'
p154
aS'6.8588'
p155
aS'934.49'
p156
aS'6409'
p157
aS'0.02'
p158
aS'963.84'
p159
aS'6611'
p160
aS'3.14'
p161
aS'201'
p162
asa(dp163
S'KLP AksjeFremvoksende Markeder Indeks II'
p164
(lp165
S'NOK'
p166
aS'3.1460'
p167
aS'1517.80'
p168
aS'4775'
p169
aS'-1.30'
p170
aS'1483.22'
p171
aS'4666'
p172
aS'-2.28'
p173
aS'-109'
p174
asS'Alfred Berg Nordisk Eiendom C'
p175
(lp176
S'NOK'
p177
aS'38.4802'
p178
aS'109.65'
p179
aS'4219'
p180
aS'0.05'
p181
aS'103.03'
p182
aS'3965'
p183
aS'-6.03'
p184
aS'-255'
p185
asS'Alfred Berg Gambak'
p186
(lp187
S'NOK'
p188
aS'0.2319'
p189
aS'23022.09'
p190
aS'5339'
p191
aS'-0.03'
p192
aS'24812.60'
p193
aS'5754'
p194
aS'7.78'
p195
aS'415'
p196
asS'Delphi Nordic'
p197
(lp198
S'NOK'
p199
aS'0.1678'
p200
aS'29608.57'
p201
aS'4968'
p202
aS'1.68'
p203
aS'29067.34'
p204
aS'4878'
p205
aS'-1.83'
p206
aS'-91'
p207
asS'date'
p208
(lp209
F1478868299.402627
aS'11.11.16'
p210
asS'KLP AksjeGlobal Indeks IV A'
p211
(lp212
S'NOK'
p213
aS'3.1209'
p214
aS'1739.88'
p215
aS'5430'
p216
aS'0.39'
p217
aS'1721.56'
p218
aS'5373'
p219
aS'-1.05'
p220
aS'-57'
p221
asS'SKAGEN Focus A'
p222
(lp223
S'NOK'
p224
aS'62.9584'
p225
aS'98.24'
p226
aS'6185'
p227
aS'2.59'
p228
aS'100.40'
p229
aS'6321'
p230
aS'2.19'
p231
aS'136'
p232
asg72
(lp233
S'NOK'
p234
aS'6.8588'
p235
aS'934.48'
p236
aS'6409'
p237
aS'0.21'
p238
aS'965.86'
p239
aS'6625'
p240
aS'3.36'
p241
aS'215'
p242
asa(dp243
S'KLP AksjeFremvoksende Markeder Indeks II'
p244
(lp245
S'NOK'
p246
aS'3.1460'
p247
aS'1517.80'
p248
aS'4775'
p249
aS'0.37'
p250
aS'1488.73'
p251
aS'4684'
p252
aS'-1.92'
p253
aS'-91'
p254
asS'Alfred Berg Nordisk Eiendom C'
p255
(lp256
S'NOK'
p257
aS'38.4802'
p258
aS'109.65'
p259
aS'4219'
p260
aS'-1.63'
p261
aS'101.35'
p262
aS'3900'
p263
aS'-7.57'
p264
aS'-319'
p265
asS'Alfred Berg Gambak'
p266
(lp267
S'NOK'
p268
aS'0.2319'
p269
aS'23022.09'
p270
aS'5339'
p271
aS'-0.34'
p272
aS'24910.36'
p273
aS'5777'
p274
aS'8.20'
p275
aS'438'
p276
asS'Delphi Nordic'
p277
(lp278
S'NOK'
p279
aS'0.1678'
p280
aS'29608.57'
p281
aS'4968'
p282
aS'-1.21'
p283
aS'28716.17'
p284
aS'4819'
p285
aS'-3.01'
p286
aS'-150'
p287
asS'date'
p288
(lp289
F1479132661.7508719
aS'14.11.16'
p290
asS'KLP AksjeGlobal Indeks IV A'
p291
(lp292
S'NOK'
p293
aS'3.1209'
p294
aS'1739.88'
p295
aS'5430'
p296
aS'0.67'
p297
aS'1733.16'
p298
aS'5409'
p299
aS'-0.39'
p300
aS'-21'
p301
asS'SKAGEN Focus A'
p302
(lp303
S'NOK'
p304
aS'62.9584'
p305
aS'98.24'
p306
aS'6185'
p307
aS'-1.06'
p308
aS'99.33'
p309
aS'6254'
p310
aS'1.11'
p311
aS'69'
p312
asg72
(lp313
S'NOK'
p314
aS'6.8588'
p315
aS'934.48'
p316
aS'6409'
p317
aS'0.23'
p318
aS'973.04'
p319
aS'6674'
p320
aS'4.13'
p321
aS'264'
p322
asa(dp323
S'KLP AksjeFremvoksende Markeder Indeks II'
p324
(lp325
S'NOK'
p326
aS'3.1460'
p327
aS'1517.80'
p328
aS'4775'
p329
aS'-0.18'
p330
aS'1447.92'
p331
aS'4555'
p332
aS'-4.60'
p333
aS'-220'
p334
asS'Alfred Berg Nordisk Eiendom C'
p335
(lp336
S'NOK'
p337
aS'38.4802'
p338
aS'109.65'
p339
aS'4219'
p340
aS'0.24'
p341
aS'101.49'
p342
aS'3905'
p343
aS'-7.44'
p344
aS'-314'
p345
asS'Alfred Berg Gambak'
p346
(lp347
S'NOK'
p348
aS'0.2319'
p349
aS'23022.09'
p350
aS'5339'
p351
aS'0.07'
p352
aS'24927.82'
p353
aS'5781'
p354
aS'8.28'
p355
aS'442'
p356
asS'Delphi Nordic'
p357
(lp358
S'NOK'
p359
aS'0.1678'
p360
aS'29608.57'
p361
aS'4968'
p362
aS'0.13'
p363
aS'28735.22'
p364
aS'4822'
p365
aS'-2.95'
p366
aS'-147'
p367
asS'date'
p368
(lp369
F1479246451.2727001
aS'15.11.16'
p370
asS'KLP AksjeGlobal Indeks IV A'
p371
(lp372
S'NOK'
p373
aS'3.1209'
p374
aS'1739.88'
p375
aS'5430'
p376
aS'0.17'
p377
aS'1731.47'
p378
aS'5404'
p379
aS'-0.48'
p380
aS'-26'
p381
asS'SKAGEN Focus A'
p382
(lp383
S'NOK'
p384
aS'62.9584'
p385
aS'98.24'
p386
aS'6185'
p387
aS'-0.99'
p388
aS'100.15'
p389
aS'6306'
p390
aS'1.95'
p391
aS'120'
p392
asg72
(lp393
S'NOK'
p394
aS'6.8588'
p395
aS'934.48'
p396
aS'6409'
p397
aS'0.40'
p398
aS'976.92'
p399
aS'6701'
p400
aS'4.54'
p401
aS'291'
p402
asa(dp403
S'KLP AksjeFremvoksende Markeder Indeks II'
p404
(lp405
S'NOK'
p406
aS'3.1460'
p407
aS'1517.80'
p408
aS'4775'
p409
aS'-0.44'
p410
aS'1441.48'
p411
aS'4535'
p412
aS'-5.03'
p413
aS'-240'
p414
asS'Alfred Berg Nordisk Eiendom C'
p415
(lp416
S'NOK'
p417
aS'38.4802'
p418
aS'109.65'
p419
aS'4219'
p420
aS'0.45'
p421
aS'101.95'
p422
aS'3923'
p423
aS'-7.02'
p424
aS'-296'
p425
asS'Alfred Berg Gambak'
p426
(lp427
S'NOK'
p428
aS'0.2319'
p429
aS'23022.09'
p430
aS'5339'
p431
aS'1.55'
p432
aS'25313.70'
p433
aS'5870'
p434
aS'9.95'
p435
aS'531'
p436
asS'Delphi Nordic'
p437
(lp438
S'NOK'
p439
aS'0.1678'
p440
aS'29608.57'
p441
aS'4968'
p442
aS'0.68'
p443
aS'28930.02'
p444
aS'4854'
p445
aS'-2.29'
p446
aS'-114'
p447
asS'date'
p448
(lp449
F1479345620.248419
aS'17.11.16'
p450
asS'KLP AksjeGlobal Indeks IV A'
p451
(lp452
S'NOK'
p453
aS'3.1209'
p454
aS'1739.88'
p455
aS'5430'
p456
aS'0.66'
p457
aS'1742.81'
p458
aS'5439'
p459
aS'0.17'
p460
aS'9'
asS'SKAGEN Focus A'
p461
(lp462
S'NOK'
p463
aS'62.9584'
p464
aS'98.24'
p465
aS'6185'
p466
aS'0.97'
p467
aS'101.13'
p468
aS'6367'
p469
aS'2.94'
p470
aS'182'
p471
asg72
(lp472
S'NOK'
p473
aS'6.8588'
p474
aS'934.48'
p475
aS'6409'
p476
aS'-0.12'
p477
aS'975.71'
p478
aS'6692'
p479
aS'4.41'
p480
aS'283'
p481
asa(dp482
S'KLP AksjeFremvoksende Markeder Indeks II'
p483
(lp484
S'NOK'
p485
aS'3.1460'
p486
aS'1517.80'
p487
aS'4775'
p488
aS'1.35'
p489
aS'1461.00'
p490
aS'4596'
p491
aS'-3.74'
p492
aS'-179'
p493
asS'Alfred Berg Nordisk Eiendom C'
p494
(lp495
S'NOK'
p496
aS'38.4802'
p497
aS'109.65'
p498
aS'4219'
p499
aS'0.77'
p500
aS'102.73'
p501
aS'3953'
p502
aS'-6.31'
p503
aS'-266'
p504
asS'Alfred Berg Gambak'
p505
(lp506
S'NOK'
p507
aS'0.2319'
p508
aS'23022.09'
p509
aS'5339'
p510
aS'-0.33'
p511
aS'25229.72'
p512
aS'5851'
p513
aS'9.59'
p514
aS'512'
p515
asS'Delphi Nordic'
p516
(lp517
S'NOK'
p518
aS'0.1678'
p519
aS'29608.57'
p520
aS'4968'
p521
aS'0.50'
p522
aS'29075.23'
p523
aS'4879'
p524
aS'-1.80'
p525
aS'-89'
p526
asS'date'
p527
(lp528
F1479453216.679297
aS'18.11.16'
p529
asS'KLP AksjeGlobal Indeks IV A'
p530
(lp531
S'NOK'
p532
aS'3.1209'
p533
aS'1739.88'
p534
aS'5430'
p535
aS'-0.05'
p536
aS'1741.86'
p537
aS'5436'
p538
aS'0.11'
p539
aS'6'
asS'SKAGEN Focus A'
p540
(lp541
S'NOK'
p542
aS'62.9584'
p543
aS'98.24'
p544
aS'6185'
p545
aS'0.71'
p546
aS'101.85'
p547
aS'6412'
p548
aS'3.67'
p549
aS'227'
p550
asg72
(lp551
S'NOK'
p552
aS'6.8588'
p553
aS'934.48'
p554
aS'6409'
p555
aS'1.00'
p556
aS'985.45'
p557
aS'6759'
p558
aS'5.45'
p559
aS'350'
p560
asa(dp561
S'KLP AksjeFremvoksende Markeder Indeks II'
p562
(lp563
S'NOK'
p564
aS'3.1460'
p565
aS'1517.80'
p566
aS'4775'
p567
aS'0.01'
p568
aS'1461.18'
p569
aS'4597'
p570
aS'-3.73'
p571
aS'-178'
p572
asS'Alfred Berg Nordisk Eiendom C'
p573
(lp574
S'NOK'
p575
aS'38.4802'
p576
aS'109.65'
p577
aS'4219'
p578
aS'1.96'
p579
aS'104.74'
p580
aS'4030'
p581
aS'-4.47'
p582
aS'-189'
p583
asS'Alfred Berg Gambak'
p584
(lp585
S'NOK'
p586
aS'0.2319'
p587
aS'23022.09'
p588
aS'5339'
p589
aS'0.16'
p590
aS'25270.70'
p591
aS'5860'
p592
aS'9.77'
p593
aS'521'
p594
asS'Delphi Nordic'
p595
(lp596
S'NOK'
p597
aS'0.1678'
p598
aS'29608.57'
p599
aS'4968'
p600
aS'0.89'
p601
aS'29333.02'
p602
aS'4922'
p603
aS'-0.93'
p604
aS'-46'
p605
asS'date'
p606
(lp607
F1479523339.968684
aS'19.11.16'
p608
asS'KLP AksjeGlobal Indeks IV A'
p609
(lp610
S'NOK'
p611
aS'2.0910'
p612
aS'1739.88'
p613
aS'3638'
p614
aS'0.50'
p615
aS'1750.55'
p616
aS'3660'
p617
aS'0.61'
p618
aS'22'
p619
asS'SKAGEN Focus A'
p620
(lp621
S'NOK'
p622
aS'62.9584'
p623
aS'98.24'
p624
aS'6185'
p625
aS'0.73'
p626
aS'102.59'
p627
aS'6459'
p628
aS'4.42'
p629
aS'273'
p630
asg72
(lp631
S'NOK'
p632
aS'6.8588'
p633
aS'934.48'
p634
aS'6409'
p635
aS'0.54'
p636
aS'990.82'
p637
aS'6796'
p638
aS'6.03'
p639
aS'386'
p640
asa(dp641
S'KLP AksjeFremvoksende Markeder Indeks II'
p642
(lp643
S'NOK'
p644
aS'3.1460'
p645
aS'1517.80'
p646
aS'4775'
p647
aS'0.88'
p648
aS'1474.06'
p649
aS'4637'
p650
aS'-2.88'
p651
aS'-138'
p652
asS'Alfred Berg Nordisk Eiendom C'
p653
(lp654
S'NOK'
p655
aS'38.4802'
p656
aS'109.65'
p657
aS'4219'
p658
aS'-0.21'
p659
aS'104.52'
p660
aS'4022'
p661
aS'-4.67'
p662
aS'-197'
p663
asS'Alfred Berg Gambak'
p664
(lp665
S'NOK'
p666
aS'0.2319'
p667
aS'23022.09'
p668
aS'5339'
p669
aS'0.20'
p670
aS'25320.96'
p671
aS'5872'
p672
aS'9.99'
p673
aS'533'
p674
asS'Delphi Nordic'
p675
(lp676
S'NOK'
p677
aS'0.1678'
p678
aS'29608.57'
p679
aS'4968'
p680
aS'-0.07'
p681
aS'29311.79'
p682
aS'4919'
p683
aS'-1.00'
p684
aS'-50'
p685
asS'date'
p686
(lp687
F1479808655.193243
aS'22.11.16'
p688
asS'KLP AksjeGlobal Indeks IV A'
p689
(lp690
S'NOK'
p691
aS'2.0910'
p692
aS'1739.88'
p693
aS'3638'
p694
aS'-0.17'
p695
aS'1747.62'
p696
aS'3654'
p697
aS'0.44'
p698
aS'16'
p699
asS'SKAGEN Focus A'
p700
(lp701
S'NOK'
p702
aS'62.9584'
p703
aS'98.24'
p704
aS'6185'
p705
aS'-0.52'
p706
aS'102.05'
p707
aS'6425'
p708
aS'3.88'
p709
aS'240'
p710
asg72
(lp711
S'NOK'
p712
aS'6.8588'
p713
aS'934.48'
p714
aS'6409'
p715
aS'1.11'
p716
aS'1001.77'
p717
aS'6871'
p718
aS'7.20'
p719
aS'462'
p720
asa(dp721
S'KLP AksjeFremvoksende Markeder Indeks II'
p722
(lp723
S'NOK'
p724
aS'3.1460'
p725
aS'1517.80'
p726
aS'4775'
p727
aS'-0.39'
p728
aS'1468.32'
p729
aS'4619'
p730
aS'-3.26'
p731
aS'-156'
p732
asS'Alfred Berg Nordisk Eiendom C'
p733
(lp734
S'NOK'
p735
aS'38.4802'
p736
aS'109.65'
p737
aS'4219'
p738
aS'-0.60'
p739
aS'103.89'
p740
aS'3998'
p741
aS'-5.25'
p742
aS'-221'
p743
asS'Alfred Berg Gambak'
p744
(lp745
S'NOK'
p746
aS'0.2319'
p747
aS'23022.09'
p748
aS'5339'
p749
aS'0.68'
p750
aS'25492.19'
p751
aS'5912'
p752
aS'10.73'
p753
aS'573'
p754
asS'Delphi Nordic'
p755
(lp756
S'NOK'
p757
aS'0.1678'
p758
aS'29608.57'
p759
aS'4968'
p760
aS'-0.07'
p761
aS'29290.54'
p762
aS'4915'
p763
aS'-1.07'
p764
aS'-53'
p765
asS'date'
p766
(lp767
F1479864527.8650379
aS'23.11.16'
p768
asS'KLP AksjeGlobal Indeks IV A'
p769
(lp770
S'NOK'
p771
aS'1.0455'
p772
aS'1739.88'
p773
aS'1819'
p774
aS'0.59'
p775
aS'1757.85'
p776
aS'1838'
p777
aS'1.03'
p778
aS'19'
p779
asS'SKAGEN Focus A'
p780
(lp781
S'NOK'
p782
aS'62.9584'
p783
aS'98.24'
p784
aS'6185'
p785
aS'0.85'
p786
aS'102.92'
p787
aS'6480'
p788
aS'4.76'
p789
aS'294'
p790
asg72
(lp791
S'NOK'
p792
aS'6.8588'
p793
aS'934.48'
p794
aS'6409'
p795
aS'-0.52'
p796
aS'996.59'
p797
aS'6835'
p798
aS'6.65'
p799
aS'426'
p800
asa(dp801
S'KLP AksjeGlobal Indeks V'
p802
(lp803
S'NOK'
p804
aS'6.4678'
p805
aS'1051.22'
p806
aS'6799'
p807
aS'0.02'
p808
aS'1058.66'
p809
aS'6847'
p810
aS'0.71'
p811
aS'48'
p812
asS'KLP AksjeFremvoksende Markeder Indeks II'
p813
(lp814
S'NOK'
p815
aS'3.1460'
p816
aS'1517.80'
p817
aS'4775'
p818
aS'1.05'
p819
aS'1483.74'
p820
aS'4668'
p821
aS'-2.24'
p822
aS'-107'
p823
asS'Alfred Berg Gambak'
p824
(lp825
S'NOK'
p826
aS'0.2319'
p827
aS'23022.09'
p828
aS'5339'
p829
aS'0.14'
p830
aS'25528.37'
p831
aS'5920'
p832
aS'10.89'
p833
aS'581'
p834
asS'Delphi Nordic'
p835
(lp836
S'NOK'
p837
aS'0.1678'
p838
aS'29608.57'
p839
aS'4968'
p840
aS'0.00'
p841
aS'29291.78'
p842
aS'4915'
p843
aS'-1.07'
p844
aS'-53'
p845
asS'date'
p846
(lp847
F1479986975.7003579
aS'24.11.16'
p848
asS'Alfred Berg Nordisk Eiendom C'
p849
(lp850
S'NOK'
p851
aS'38.4802'
p852
aS'109.65'
p853
aS'4219'
p854
aS'2.23'
p855
aS'106.21'
p856
aS'4087'
p857
aS'-3.13'
p858
aS'-132'
p859
asS'SKAGEN Focus A'
p860
(lp861
S'NOK'
p862
aS'62.9584'
p863
aS'98.24'
p864
aS'6185'
p865
aS'0.41'
p866
aS'103.33'
p867
aS'6506'
p868
aS'5.18'
p869
aS'321'
p870
asg72
(lp871
S'NOK'
p872
aS'6.8588'
p873
aS'934.48'
p874
aS'6409'
p875
aS'0.65'
p876
aS'1002.21'
p877
aS'6874'
p878
aS'7.25'
p879
aS'465'
p880
asa(dp881
S'KLP AksjeGlobal Indeks V'
p882
(lp883
S'NOK'
p884
aS'6.4678'
p885
aS'1051.22'
p886
aS'6799'
p887
aS'0.79'
p888
aS'1067.05'
p889
aS'6901'
p890
aS'1.51'
p891
aS'102'
p892
asS'KLP AksjeFremvoksende Markeder Indeks II'
p893
(lp894
S'NOK'
p895
aS'3.1460'
p896
aS'1517.80'
p897
aS'4775'
p898
aS'-0.86'
p899
aS'1483.15'
p900
aS'4666'
p901
aS'-2.28'
p902
aS'-109'
p903
asS'Alfred Berg Gambak'
p904
(lp905
S'NOK'
p906
aS'0.2319'
p907
aS'23022.09'
p908
aS'5339'
p909
aS'0.39'
p910
aS'25594.61'
p911
aS'5935'
p912
aS'11.17'
p913
aS'597'
p914
asS'Delphi Nordic'
p915
(lp916
S'NOK'
p917
aS'0.1678'
p918
aS'29608.57'
p919
aS'4968'
p920
aS'0.30'
p921
aS'29654.58'
p922
aS'4976'
p923
aS'0.16'
p924
aS'8'
asS'date'
p925
(lp926
F1480109683.528013
aS'25.11.16'
p927
asS'Alfred Berg Nordisk Eiendom C'
p928
(lp929
S'NOK'
p930
aS'38.4802'
p931
aS'109.65'
p932
aS'4219'
p933
aS'0.01'
p934
aS'106.42'
p935
aS'4095'
p936
aS'-2.94'
p937
aS'-124'
p938
asS'SKAGEN Focus A'
p939
(lp940
S'NOK'
p941
aS'62.9584'
p942
aS'98.24'
p943
aS'6185'
p944
aS'-0.35'
p945
aS'102.72'
p946
aS'6467'
p947
aS'4.56'
p948
aS'282'
p949
asg72
(lp950
S'NOK'
p951
aS'6.8588'
p952
aS'934.48'
p953
aS'6409'
p954
aS'0.65'
p955
aS'1002.21'
p956
aS'6874'
p957
aS'7.25'
p958
aS'465.00000000001'
p959
asa(dp960
S'KLP AksjeGlobal Indeks V'
p961
(lp962
S'NOK'
p963
aS'6.4678'
p964
aS'1051.22'
p965
aS'6799'
p966
aS'0.00'
p967
aS'1068.14'
p968
aS'6909'
p969
aS'1.61'
p970
aS'109'
p971
asS'KLP AksjeFremvoksende Markeder Indeks II'
p972
(lp973
S'NOK'
p974
aS'3.1460'
p975
aS'1517.80'
p976
aS'4775'
p977
aS'0.31'
p978
aS'1487.71'
p979
aS'4680'
p980
aS'-1.98'
p981
aS'-95'
p982
asS'Alfred Berg Gambak'
p983
(lp984
S'NOK'
p985
aS'0.2319'
p986
aS'23022.09'
p987
aS'5339'
p988
aS'-0.23'
p989
aS'25536.88'
p990
aS'5922'
p991
aS'10.92'
p992
aS'583'
p993
asS'Delphi Nordic'
p994
(lp995
S'NOK'
p996
aS'0.1678'
p997
aS'29608.57'
p998
aS'4968'
p999
aS'-0.02'
p1000
aS'29648.52'
p1001
aS'4975'
p1002
aS'0.13'
p1003
aS'7'
asS'date'
p1004
(lp1005
F1480371597.6485779
aS'28.11.16'
p1006
asS'Alfred Berg Nordisk Eiendom C'
p1007
(lp1008
S'NOK'
p1009
aS'38.4802'
p1010
aS'109.65'
p1011
aS'4219'
p1012
aS'0.63'
p1013
aS'107.09'
p1014
aS'4121'
p1015
aS'-2.33'
p1016
aS'-98'
p1017
asS'SKAGEN Focus A'
p1018
(lp1019
S'NOK'
p1020
aS'62.9584'
p1021
aS'98.24'
p1022
aS'6185'
p1023
aS'-0.15'
p1024
aS'102.56'
p1025
aS'6457'
p1026
aS'4.40'
p1027
aS'272'
p1028
asg72
(lp1029
S'NOK'
p1030
aS'6.8588'
p1031
aS'934.48'
p1032
aS'6409'
p1033
aS'0.00'
p1034
aS'1008.33'
p1035
aS'6916'
p1036
aS'7.90'
p1037
aS'506'
p1038
asa(dp1039
S'KLP AksjeGlobal Indeks V'
p1040
(lp1041
S'NOK'
p1042
aS'6.4678'
p1043
aS'1051.22'
p1044
aS'6799'
p1045
aS'-0.48'
p1046
aS'1063.06'
p1047
aS'6876'
p1048
aS'1.13'
p1049
aS'77'
p1050
asS'KLP AksjeFremvoksende Markeder Indeks II'
p1051
(lp1052
S'NOK'
p1053
aS'3.1460'
p1054
aS'1517.80'
p1055
aS'4775'
p1056
aS'0.90'
p1057
aS'1501.03'
p1058
aS'4722'
p1059
aS'-1.10'
p1060
aS'-53'
p1061
asS'Alfred Berg Gambak'
p1062
(lp1063
S'NOK'
p1064
aS'0.2319'
p1065
aS'23022.09'
p1066
aS'5339'
p1067
aS'-0.13'
p1068
aS'25504.65'
p1069
aS'5915'
p1070
aS'10.78'
p1071
aS'576'
p1072
asS'Delphi Nordic'
p1073
(lp1074
S'NOK'
p1075
aS'0.1754'
p1076
aS'29610.30'
p1077
aS'5194'
p1078
aS'-0.69'
p1079
aS'29443.45'
p1080
aS'5164'
p1081
aS'-0.56'
p1082
aS'-29'
p1083
asS'date'
p1084
(lp1085
F1480443641.0384769
aS'29.11.16'
p1086
asS'Alfred Berg Nordisk Eiendom C'
p1087
(lp1088
S'NOK'
p1089
aS'38.4802'
p1090
aS'109.65'
p1091
aS'4219'
p1092
aS'0.28'
p1093
aS'107.39'
p1094
aS'4132'
p1095
aS'-2.06'
p1096
aS'-87'
p1097
asS'SKAGEN Focus A'
p1098
(lp1099
S'NOK'
p1100
aS'62.9584'
p1101
aS'98.24'
p1102
aS'6185'
p1103
aS'-0.35'
p1104
aS'102.20'
p1105
aS'6435'
p1106
aS'4.03'
p1107
aS'249'
p1108
asg72
(lp1109
S'NOK'
p1110
aS'7.2163'
p1111
aS'938.08'
p1112
aS'6769'
p1113
aS'-0.13'
p1114
aS'1007.04'
p1115
aS'7267'
p1116
aS'7.35'
p1117
aS'498'
p1118
asa(dp1119
S'KLP AksjeGlobal Indeks V'
p1120
(lp1121
S'NOK'
p1122
aS'6.7077'
p1123
aS'1051.64'
p1124
aS'7054'
p1125
aS'-0.10'
p1126
aS'1061.99'
p1127
aS'7123'
p1128
aS'0.98'
p1129
aS'69'
p1130
asS'KLP AksjeFremvoksende Markeder Indeks II'
p1131
(lp1132
S'NOK'
p1133
aS'3.2970'
p1134
aS'1516.52'
p1135
aS'5000'
p1136
aS'-0.74'
p1137
aS'1489.91'
p1138
aS'4912'
p1139
aS'-1.75'
p1140
aS'-88'
p1141
asS'Alfred Berg Gambak'
p1142
(lp1143
S'NOK'
p1144
aS'0.2431'
p1145
aS'23133.78'
p1146
aS'5624'
p1147
aS'-0.54'
p1148
aS'25366.32'
p1149
aS'6167'
p1150
aS'9.65'
p1151
aS'543'
p1152
asS'Delphi Nordic'
p1153
(lp1154
S'NOK'
p1155
aS'0.1754'
p1156
aS'29608.42'
p1157
aS'5193'
p1158
aS'-0.01'
p1159
aS'29440.78'
p1160
aS'5164'
p1161
aS'-0.57'
p1162
aS'-29'
p1163
asS'date'
p1164
(lp1165
F1480540410.3992879
aS'30.11.16'
p1166
asS'Alfred Berg Nordisk Eiendom C'
p1167
(lp1168
S'NOK'
p1169
aS'39.8770'
p1170
aS'109.57'
p1171
aS'4369'
p1172
aS'-0.28'
p1173
aS'107.09'
p1174
aS'4270'
p1175
aS'-2.26'
p1176
aS'-99'
p1177
asS'SKAGEN Focus A'
p1178
(lp1179
S'NOK'
p1180
aS'62.9584'
p1181
aS'98.24'
p1182
aS'6185'
p1183
aS'0.15'
p1184
aS'102.35'
p1185
aS'6444'
p1186
aS'4.18'
p1187
aS'259'
p1188
asg72
(lp1189
S'NOK'
p1190
aS'7.2163'
p1191
aS'938.08'
p1192
aS'6769'
p1193
aS'0.04'
p1194
aS'1007.47'
p1195
aS'7270'
p1196
aS'7.40'
p1197
aS'501'
p1198
asa(dp1199
S'KLP AksjeGlobal Indeks V'
p1200
(lp1201
S'NOK'
p1202
aS'6.7077'
p1203
aS'1051.64'
p1204
aS'7054'
p1205
aS'-0.60'
p1206
aS'1055.64'
p1207
aS'7081'
p1208
aS'0.38'
p1209
aS'27'
p1210
asS'KLP AksjeFremvoksende Markeder Indeks II'
p1211
(lp1212
S'NOK'
p1213
aS'3.2970'
p1214
aS'1516.53'
p1215
aS'5000'
p1216
aS'-0.04'
p1217
aS'1489.31'
p1218
aS'4910'
p1219
aS'-1.79'
p1220
aS'-90'
p1221
asS'Alfred Berg Gambak'
p1222
(lp1223
S'NOK'
p1224
aS'0.2431'
p1225
aS'23133.78'
p1226
aS'5624'
p1227
aS'-0.18'
p1228
aS'25595.81'
p1229
aS'6222'
p1230
aS'10.64'
p1231
aS'599'
p1232
asS'Delphi Nordic'
p1233
(lp1234
S'NOK'
p1235
aS'0.1754'
p1236
aS'29608.42'
p1237
aS'5193'
p1238
aS'-1.16'
p1239
aS'29100.05'
p1240
aS'5104'
p1241
aS'-1.72'
p1242
aS'-89'
p1243
asS'date'
p1244
(lp1245
F1480683624.703486
aS'02.12.16'
p1246
asS'Alfred Berg Nordisk Eiendom C'
p1247
(lp1248
S'NOK'
p1249
aS'39.8770'
p1250
aS'109.57'
p1251
aS'4369'
p1252
aS'-1.46'
p1253
aS'105.53'
p1254
aS'4208'
p1255
aS'-3.68'
p1256
aS'-161'
p1257
asS'SKAGEN Focus A'
p1258
(lp1259
S'NOK'
p1260
aS'62.9584'
p1261
aS'98.24'
p1262
aS'6185'
p1263
aS'-0.47'
p1264
aS'101.87'
p1265
aS'6413'
p1266
aS'3.69'
p1267
aS'228'
p1268
asg72
(lp1269
S'NOK'
p1270
aS'7.2163'
p1271
aS'938.08'
p1272
aS'6769'
p1273
aS'-2.04'
p1274
aS'976.17'
p1275
aS'7044'
p1276
aS'4.06'
p1277
aS'275'
p1278
asa(dp1279
S'KLP AksjeGlobal Indeks V'
p1280
(lp1281
S'NOK'
p1282
aS'6.7077'
p1283
aS'1051.64'
p1284
aS'7054'
p1285
aS'-0.37'
p1286
aS'1042.70'
p1287
aS'6994'
p1288
aS'-0.85'
p1289
aS'-60'
p1290
asS'KLP AksjeFremvoksende Markeder Indeks II'
p1291
(lp1292
S'NOK'
p1293
aS'3.2970'
p1294
aS'1516.53'
p1295
aS'5000'
p1296
aS'-1.04'
p1297
aS'1457.17'
p1298
aS'4804'
p1299
aS'-3.91'
p1300
aS'-196'
p1301
asS'Alfred Berg Gambak'
p1302
(lp1303
S'NOK'
p1304
aS'0.2431'
p1305
aS'23133.78'
p1306
aS'5624'
p1307
aS'-0.09'
p1308
aS'25571.86'
p1309
aS'6217'
p1310
aS'10.54'
p1311
aS'593'
p1312
asS'Delphi Nordic'
p1313
(lp1314
S'NOK'
p1315
aS'0.1754'
p1316
aS'29608.42'
p1317
aS'5193'
p1318
aS'-0.78'
p1319
aS'28873.43'
p1320
aS'5064'
p1321
aS'-2.48'
p1322
aS'-129'
p1323
asS'date'
p1324
(lp1325
F1480947276.4394021
aS'05.12.16'
p1326
asS'Alfred Berg Nordisk Eiendom C'
p1327
(lp1328
S'NOK'
p1329
aS'39.8770'
p1330
aS'109.57'
p1331
aS'4369'
p1332
aS'-0.11'
p1333
aS'105.41'
p1334
aS'4203'
p1335
aS'-3.79'
p1336
aS'-166'
p1337
asS'SKAGEN Focus A'
p1338
(lp1339
S'NOK'
p1340
aS'63.9429'
p1341
aS'98.29'
p1342
aS'6285'
p1343
aS'-0.29'
p1344
aS'101.57'
p1345
aS'6495'
p1346
aS'3.33'
p1347
aS'210'
p1348
asg72
(lp1349
S'NOK'
p1350
aS'7.2163'
p1351
aS'938.08'
p1352
aS'6769'
p1353
aS'-0.65'
p1354
aS'969.85'
p1355
aS'6999'
p1356
aS'3.39'
p1357
aS'229'
p1358
asa(dp1359
S'KLP AksjeGlobal Indeks V'
p1360
(lp1361
S'NOK'
p1362
aS'6.8995'
p1363
aS'1051.39'
p1364
aS'7254'
p1365
aS'0.03'
p1366
aS'1043.04'
p1367
aS'7196'
p1368
aS'-0.79'
p1369
aS'-58'
p1370
asS'KLP AksjeFremvoksende Markeder Indeks II'
p1371
(lp1372
S'NOK'
p1373
aS'3.4003'
p1374
aS'1514.57'
p1375
aS'5150'
p1376
aS'-0.37'
p1377
aS'1451.75'
p1378
aS'4936'
p1379
aS'-4.15'
p1380
aS'-214'
p1381
asS'Alfred Berg Gambak'
p1382
(lp1383
S'NOK'
p1384
aS'0.2470'
p1385
aS'23173.37'
p1386
aS'5724'
p1387
aS'1.20'
p1388
aS'25877.46'
p1389
aS'6392'
p1390
aS'11.67'
p1391
aS'668'
p1392
asS'Delphi Nordic'
p1393
(lp1394
S'NOK'
p1395
aS'0.1754'
p1396
aS'29608.42'
p1397
aS'5193'
p1398
aS'-0.21'
p1399
aS'28995.40'
p1400
aS'5086'
p1401
aS'-2.07'
p1402
aS'-108'
p1403
asS'date'
p1404
(lp1405
F1481113534.881604
aS'07.12.16'
p1406
asS'Alfred Berg Nordisk Eiendom C'
p1407
(lp1408
S'NOK'
p1409
aS'40.8312'
p1410
aS'109.46'
p1411
aS'4469'
p1412
aS'0.27'
p1413
aS'105.08'
p1414
aS'4291'
p1415
aS'-4.00'
p1416
aS'-179'
p1417
asS'SKAGEN Focus A'
p1418
(lp1419
S'NOK'
p1420
aS'63.9429'
p1421
aS'98.29'
p1422
aS'6285'
p1423
aS'0.71'
p1424
aS'102.12'
p1425
aS'6530'
p1426
aS'3.90'
p1427
aS'245'
p1428
asg72
(lp1429
S'NOK'
p1430
aS'7.3194'
p1431
aS'938.52'
p1432
aS'6869'
p1433
aS'0.32'
p1434
aS'985.22'
p1435
aS'7211'
p1436
aS'4.98'
p1437
aS'342'
p1438
asa(dp1439
S'KLP AksjeGlobal Indeks V'
p1440
(lp1441
S'NOK'
p1442
aS'6.8995'
p1443
aS'1051.39'
p1444
aS'7254'
p1445
aS'0.55'
p1446
aS'1048.74'
p1447
aS'7236'
p1448
aS'-0.25'
p1449
aS'-18'
p1450
asS'KLP AksjeFremvoksende Markeder Indeks II'
p1451
(lp1452
S'NOK'
p1453
aS'3.4003'
p1454
aS'1514.57'
p1455
aS'5150'
p1456
aS'0.82'
p1457
aS'1463.69'
p1458
aS'4977'
p1459
aS'-3.36'
p1460
aS'-173'
p1461
asS'Alfred Berg Gambak'
p1462
(lp1463
S'NOK'
p1464
aS'0.2470'
p1465
aS'23173.37'
p1466
aS'5724'
p1467
aS'-0.24'
p1468
aS'25814.55'
p1469
aS'6376'
p1470
aS'11.40'
p1471
aS'652'
p1472
asS'Delphi Nordic'
p1473
(lp1474
S'NOK'
p1475
aS'0.1754'
p1476
aS'29608.42'
p1477
aS'5193'
p1478
aS'0.61'
p1479
aS'29172.22'
p1480
aS'5117'
p1481
aS'-1.47'
p1482
aS'-77'
p1483
asS'date'
p1484
(lp1485
F1481201954.0910561
aS'08.12.16'
p1486
asS'Alfred Berg Nordisk Eiendom C'
p1487
(lp1488
S'NOK'
p1489
aS'40.8312'
p1490
aS'109.46'
p1491
aS'4469'
p1492
aS'-0.03'
p1493
aS'105.05'
p1494
aS'4289'
p1495
aS'-4.02'
p1496
aS'-180'
p1497
asS'SKAGEN Focus A'
p1498
(lp1499
S'NOK'
p1500
aS'63.9429'
p1501
aS'98.29'
p1502
aS'6285'
p1503
aS'1.52'
p1504
aS'103.68'
p1505
aS'6629'
p1506
aS'5.48'
p1507
aS'344'
p1508
asg72
(lp1509
S'NOK'
p1510
aS'7.3194'
p1511
aS'938.52'
p1512
aS'6869'
p1513
aS'1.77'
p1514
aS'1002.66'
p1515
aS'7339'
p1516
aS'6.83'
p1517
aS'469'
p1518
asa(dp1519
S'KLP AksjeGlobal Indeks V'
p1520
(lp1521
S'NOK'
p1522
aS'6.8995'
p1523
aS'1051.39'
p1524
aS'7254'
p1525
aS'1.40'
p1526
aS'1074.00'
p1527
aS'7410'
p1528
aS'2.15'
p1529
aS'156'
p1530
asS'KLP AksjeFremvoksende Markeder Indeks II'
p1531
(lp1532
S'NOK'
p1533
aS'3.4003'
p1534
aS'1514.57'
p1535
aS'5150'
p1536
aS'2.51'
p1537
aS'1507.77'
p1538
aS'5127'
p1539
aS'-0.45'
p1540
aS'-23'
p1541
asS'Alfred Berg Gambak'
p1542
(lp1543
S'NOK'
p1544
aS'0.2470'
p1545
aS'23173.37'
p1546
aS'5724'
p1547
aS'0.33'
p1548
aS'25940.17'
p1549
aS'6407'
p1550
aS'11.94'
p1551
aS'683'
p1552
asS'Delphi Nordic'
p1553
(lp1554
S'NOK'
p1555
aS'0.1754'
p1556
aS'29608.42'
p1557
aS'5193'
p1558
aS'0.80'
p1559
aS'29406.00'
p1560
aS'5158'
p1561
aS'-0.68'
p1562
aS'-36'
p1563
asS'date'
p1564
(lp1565
F1481296474.3981221
aS'09.12.16'
p1566
asS'Alfred Berg Nordisk Eiendom C'
p1567
(lp1568
S'NOK'
p1569
aS'40.8312'
p1570
aS'109.46'
p1571
aS'4469'
p1572
aS'0.40'
p1573
aS'105.47'
p1574
aS'4306'
p1575
aS'-3.64'
p1576
aS'-163'
p1577
asS'SKAGEN Focus A'
p1578
(lp1579
S'NOK'
p1580
aS'63.9429'
p1581
aS'98.29'
p1582
aS'6285'
p1583
aS'2.20'
p1584
aS'105.96'
p1585
aS'6775'
p1586
aS'7.79'
p1587
aS'490'
p1588
asg72
(lp1589
S'NOK'
p1590
aS'7.3194'
p1591
aS'938.52'
p1592
aS'6869'
p1593
aS'0.89'
p1594
aS'1011.54'
p1595
aS'7404'
p1596
aS'7.78'
p1597
aS'534'
p1598
asa(dp1599
S'KLP AksjeGlobal Indeks V'
p1600
(lp1601
S'NOK'
p1602
aS'6.8995'
p1603
aS'1051.39'
p1604
aS'7254'
p1605
aS'1.27'
p1606
aS'1087.65'
p1607
aS'7504'
p1608
aS'3.45'
p1609
aS'250'
p1610
asS'KLP AksjeFremvoksende Markeder Indeks II'
p1611
(lp1612
S'NOK'
p1613
aS'3.4003'
p1614
aS'1514.57'
p1615
aS'5150'
p1616
aS'0.67'
p1617
aS'1517.94'
p1618
aS'5161'
p1619
aS'0.22'
p1620
aS'11'
p1621
asS'Alfred Berg Gambak'
p1622
(lp1623
S'NOK'
p1624
aS'0.2470'
p1625
aS'23173.37'
p1626
aS'5724'
p1627
aS'0.67'
p1628
aS'26113.00'
p1629
aS'6450'
p1630
aS'12.69'
p1631
aS'726'
p1632
asS'Delphi Nordic'
p1633
(lp1634
S'NOK'
p1635
aS'0.1754'
p1636
aS'29608.42'
p1637
aS'5193'
p1638
aS'0.70'
p1639
aS'29613.10'
p1640
aS'5194'
p1641
aS'0.02'
p1642
aS'1'
asS'date'
p1643
(lp1644
F1481558691.9516439
aS'12.12.16'
p1645
asS'Alfred Berg Nordisk Eiendom C'
p1646
(lp1647
S'NOK'
p1648
aS'40.8312'
p1649
aS'109.46'
p1650
aS'4469'
p1651
aS'1.19'
p1652
aS'106.72'
p1653
aS'4358'
p1654
aS'-2.50'
p1655
aS'-112'
p1656
asS'SKAGEN Focus A'
p1657
(lp1658
S'NOK'
p1659
aS'63.9429'
p1660
aS'98.29'
p1661
aS'6285'
p1662
aS'0.51'
p1663
aS'106.50'
p1664
aS'6810'
p1665
aS'8.35'
p1666
aS'525'
p1667
asg72
(lp1668
S'NOK'
p1669
aS'7.3194'
p1670
aS'938.52'
p1671
aS'6869'
p1672
aS'1.31'
p1673
aS'1024.76'
p1674
aS'7501'
p1675
aS'9.19'
p1676
aS'631'
p1677
asa(dp1678
S'KLP AksjeGlobal Indeks V'
p1679
(lp1680
S'NOK'
p1681
aS'6.8995'
p1682
aS'1051.39'
p1683
aS'7254'
p1684
aS'-1.03'
p1685
aS'1076.44'
p1686
aS'7427'
p1687
aS'2.38'
p1688
aS'173'
p1689
asS'KLP AksjeFremvoksende Markeder Indeks II'
p1690
(lp1691
S'NOK'
p1692
aS'3.4003'
p1693
aS'1514.57'
p1694
aS'5150'
p1695
aS'-1.72'
p1696
aS'1491.88'
p1697
aS'5073'
p1698
aS'-1.50'
p1699
aS'-77'
p1700
asS'Alfred Berg Gambak'
p1701
(lp1702
S'NOK'
p1703
aS'0.2470'
p1704
aS'23173.37'
p1705
aS'5724'
p1706
aS'0.11'
p1707
aS'26141.38'
p1708
aS'6457'
p1709
aS'12.81'
p1710
aS'733'
p1711
asS'Delphi Nordic'
p1712
(lp1713
S'NOK'
p1714
aS'0.1754'
p1715
aS'29608.42'
p1716
aS'5193'
p1717
aS'-0.26'
p1718
aS'29536.09'
p1719
aS'5181'
p1720
aS'-0.24'
p1721
aS'-13'
p1722
asS'date'
p1723
(lp1724
F1481640006.9935949
aS'13.12.16'
p1725
asS'Alfred Berg Nordisk Eiendom C'
p1726
(lp1727
S'NOK'
p1728
aS'40.8312'
p1729
aS'109.46'
p1730
aS'4469'
p1731
aS'-1.91'
p1732
aS'104.68'
p1733
aS'4274'
p1734
aS'-4.36'
p1735
aS'-195'
p1736
asS'SKAGEN Focus A'
p1737
(lp1738
S'NOK'
p1739
aS'63.9429'
p1740
aS'98.29'
p1741
aS'6285'
p1742
aS'-0.58'
p1743
aS'105.88'
p1744
aS'6770'
p1745
aS'7.72'
p1746
aS'485'
p1747
asg72
(lp1748
S'NOK'
p1749
aS'7.3194'
p1750
aS'938.52'
p1751
aS'6869'
p1752
aS'-1.03'
p1753
aS'1014.23'
p1754
aS'7424'
p1755
aS'8.07'
p1756
aS'554'
p1757
asa(dp1758
S'KLP AksjeGlobal Indeks V'
p1759
(lp1760
S'NOK'
p1761
aS'6.8995'
p1762
aS'1051.39'
p1763
aS'7254'
p1764
aS'0.51'
p1765
aS'1081.97'
p1766
aS'7465'
p1767
aS'2.91'
p1768
aS'211'
p1769
asS'KLP AksjeFremvoksende Markeder Indeks II'
p1770
(lp1771
S'NOK'
p1772
aS'3.4003'
p1773
aS'1514.57'
p1774
aS'5150'
p1775
aS'0.32'
p1776
aS'1496.64'
p1777
aS'5089'
p1778
aS'-1.18'
p1779
aS'-61'
p1780
asS'Alfred Berg Gambak'
p1781
(lp1782
S'NOK'
p1783
aS'0.2470'
p1784
aS'23173.37'
p1785
aS'5724'
p1786
aS'0.09'
p1787
aS'26163.74'
p1788
aS'6462'
p1789
aS'12.90'
p1790
aS'739'
p1791
asS'Delphi Nordic'
p1792
(lp1793
S'NOK'
p1794
aS'0.1754'
p1795
aS'29608.42'
p1796
aS'5193'
p1797
aS'0.15'
p1798
aS'29613.91'
p1799
aS'5194'
p1800
aS'0.02'
p1801
aS'1'
asS'date'
p1802
(lp1803
F1481753792.9399171
aS'14.12.16'
p1804
asS'Alfred Berg Nordisk Eiendom C'
p1805
(lp1806
S'NOK'
p1807
aS'40.8312'
p1808
aS'109.46'
p1809
aS'4469'
p1810
aS'0.51'
p1811
aS'105.62'
p1812
aS'4313'
p1813
aS'-3.50'
p1814
aS'-157'
p1815
asS'SKAGEN Focus A'
p1816
(lp1817
S'NOK'
p1818
aS'63.9429'
p1819
aS'98.29'
p1820
aS'6285'
p1821
aS'0.53'
p1822
aS'106.81'
p1823
aS'6830'
p1824
aS'8.67'
p1825
aS'545'
p1826
asg72
(lp1827
S'NOK'
p1828
aS'7.3194'
p1829
aS'938.52'
p1830
aS'6869'
p1831
aS'-0.03'
p1832
aS'1013.91'
p1833
aS'7421'
p1834
aS'8.03'
p1835
aS'552'
p1836
asa(dp1837
S'KLP AksjeGlobal Indeks V'
p1838
(lp1839
S'NOK'
p1840
aS'6.8995'
p1841
aS'1051.39'
p1842
aS'7254'
p1843
aS'0.04'
p1844
aS'1082.39'
p1845
aS'7468'
p1846
aS'2.95'
p1847
aS'214'
p1848
asS'KLP AksjeFremvoksende Markeder Indeks II'
p1849
(lp1850
S'NOK'
p1851
aS'3.4003'
p1852
aS'1514.57'
p1853
aS'5150'
p1854
aS'0.11'
p1855
aS'1498.32'
p1856
aS'5095'
p1857
aS'-1.07'
p1858
aS'-55'
p1859
asS'Alfred Berg Nordisk Eiendom C'
p1860
(lp1861
S'NOK'
p1862
aS'40.8312'
p1863
aS'109.46'
p1864
aS'4469'
p1865
aS'0.51'
p1866
aS'105.62'
p1867
aS'4313'
p1868
aS'-3.50'
p1869
aS'-157.00001'
p1870
asS'Global X MSCI SuperDividend EAFE ETF'
p1871
(lp1872
S'USD'
p1873
aS'38'
p1874
aS'15.83'
p1875
aS'0.00'
p1876
aS'15.71'
p1877
aS'0601'
p1878
aS'5209'
p1879
aS'0.32'
p1880
aS'66'
p1881
asS'Alfred Berg Gambak'
p1882
(lp1883
S'NOK'
p1884
aS'0.2470'
p1885
aS'23173.37'
p1886
aS'5724'
p1887
aS'-0.63'
p1888
aS'25999.55'
p1889
aS'6422'
p1890
aS'12.20'
p1891
aS'698'
p1892
asS'Delphi Nordic'
p1893
(lp1894
S'NOK'
p1895
aS'0.1754'
p1896
aS'29608.42'
p1897
aS'5193'
p1898
aS'0.15'
p1899
aS'29613.91'
p1900
aS'5194'
p1901
aS'0.02'
p1902
aS'1.00001'
p1903
asS'date'
p1904
(lp1905
F1481819104.043509
aS'15.12.16'
p1906
asS'Global X SuperIncome Preferred ETF'
p1907
(lp1908
S'USD'
p1909
aS'47'
p1910
aS'13.43'
p1911
aS'-0.23'
p1912
aS'12.77'
p1913
aS'0597'
p1914
aS'5176'
p1915
aS'0.28'
p1916
aS'58'
p1917
asS'SKAGEN Focus A'
p1918
(lp1919
S'NOK'
p1920
aS'63.9429'
p1921
aS'98.29'
p1922
aS'6285'
p1923
aS'0.53'
p1924
aS'106.81'
p1925
aS'6830'
p1926
aS'8.67'
p1927
aS'545.00001'
p1928
asg72
(lp1929
S'NOK'
p1930
aS'7.3194'
p1931
aS'938.52'
p1932
aS'6869'
p1933
aS'0.43'
p1934
aS'1018.30'
p1935
aS'7453'
p1936
aS'8.50'
p1937
aS'584'
p1938
asa(dp1939
S'KLP AksjeGlobal Indeks V'
p1940
(lp1941
S'NOK'
p1942
aS'6.8995'
p1943
aS'1051.39'
p1944
aS'7254'
p1945
aS'1.80'
p1946
aS'1101.92'
p1947
aS'7603'
p1948
aS'4.81'
p1949
aS'349'
p1950
asS'KLP AksjeFremvoksende Markeder Indeks II'
p1951
(lp1952
S'NOK'
p1953
aS'3.4003'
p1954
aS'1514.57'
p1955
aS'5150'
p1956
aS'0.72'
p1957
aS'1509.17'
p1958
aS'5132'
p1959
aS'-0.36'
p1960
aS'-18'
p1961
asS'Global X MSCI SuperDividend EAFE ETF'
p1962
(lp1963
S'USD'
p1964
aS'75'
p1965
aS'15.83'
p1966
aS'0.00'
p1967
aS'15.71'
p1968
aS'1202'
p1969
aS'10454'
p1970
aS'0.82'
p1971
aS'168'
p1972
asS'Alfred Berg Gambak'
p1973
(lp1974
S'NOK'
p1975
aS'0.2470'
p1976
aS'23173.37'
p1977
aS'5724'
p1978
aS'-0.35'
p1979
aS'25907.24'
p1980
aS'6399'
p1981
aS'11.80'
p1982
aS'675'
p1983
asS'Delphi Nordic'
p1984
(lp1985
S'NOK'
p1986
aS'0.1754'
p1987
aS'29608.42'
p1988
aS'5193'
p1989
aS'0.28'
p1990
aS'29696.40'
p1991
aS'5209'
p1992
aS'0.30'
p1993
aS'15'
p1994
asS'Global X SuperIncome Preferred ETF'
p1995
(lp1996
S'USD'
p1997
aS'94'
p1998
aS'13.43'
p1999
aS'-0.08'
p2000
aS'12.80'
p2001
aS'1197'
p2002
aS'10410'
p2003
aS'0.86'
p2004
aS'175'
p2005
asS'date'
p2006
(lp2007
F1481898735.103678
aS'16.12.16'
p2008
asS'Alfred Berg Nordisk Eiendom C'
p2009
(lp2010
S'NOK'
p2011
aS'40.8312'
p2012
aS'109.46'
p2013
aS'4469'
p2014
aS'-1.51'
p2015
aS'104.03'
p2016
aS'4248'
p2017
aS'-4.96'
p2018
aS'-222'
p2019
asS'SKAGEN Focus A'
p2020
(lp2021
S'NOK'
p2022
aS'63.9429'
p2023
aS'98.29'
p2024
aS'6285'
p2025
aS'0.65'
p2026
aS'107.50'
p2027
aS'6874'
p2028
aS'9.37'
p2029
aS'589'
p2030
asg72
(lp2031
S'NOK'
p2032
aS'7.3194'
p2033
aS'938.52'
p2034
aS'6869'
p2035
aS'2.13'
p2036
aS'1039.94'
p2037
aS'7612'
p2038
aS'10.81'
p2039
aS'742'
p2040
asa(dp2041
S'KLP AksjeGlobal Indeks V'
p2042
(lp2043
S'NOK'
p2044
aS'6.8995'
p2045
aS'1051.39'
p2046
aS'7254'
p2047
aS'0.41'
p2048
aS'1106.41'
p2049
aS'7634'
p2050
aS'5.23'
p2051
aS'380'
p2052
asS'KLP AksjeFremvoksende Markeder Indeks II'
p2053
(lp2054
S'NOK'
p2055
aS'3.4003'
p2056
aS'1514.57'
p2057
aS'5150'
p2058
aS'0.16'
p2059
aS'1511.64'
p2060
aS'5140'
p2061
aS'-0.19'
p2062
aS'-10'
p2063
asS'Alfred Berg Nordisk Eiendom C'
p2064
(lp2065
S'NOK'
p2066
aS'40.8312'
p2067
aS'109.46'
p2068
aS'4469'
p2069
aS'0.97'
p2070
aS'105.04'
p2071
aS'4289'
p2072
aS'-4.03'
p2073
aS'-180'
p2074
asS'Global X MSCI SuperDividend EAFE ETF'
p2075
(lp2076
S'USD'
p2077
aS'115'
p2078
aS'15.83'
p2079
aS'0.00'
p2080
aS'15.71'
p2081
aS'1804'
p2082
aS'15675'
p2083
aS'1.20'
p2084
aS'246'
p2085
asS'Alfred Berg Gambak'
p2086
(lp2087
S'NOK'
p2088
aS'0.2470'
p2089
aS'23173.37'
p2090
aS'5724'
p2091
aS'0.23'
p2092
aS'25965.56'
p2093
aS'6413'
p2094
aS'12.05'
p2095
aS'690'
p2096
asS'Delphi Nordic'
p2097
(lp2098
S'NOK'
p2099
aS'0.1754'
p2100
aS'29608.42'
p2101
aS'5193'
p2102
aS'1.07'
p2103
aS'30014.98'
p2104
aS'5265'
p2105
aS'1.37'
p2106
aS'71'
p2107
asS'date'
p2108
(lp2109
F1482162414.306299
aS'19.12.16'
p2110
asS'Global X SuperIncome Preferred ETF'
p2111
(lp2112
S'USD'
p2113
aS'140'
p2114
aS'13.43'
p2115
aS'0.00'
p2116
aS'12.83'
p2117
aS'1800'
p2118
aS'15647'
p2119
aS'1.43'
p2120
aS'293'
p2121
asS'SKAGEN Focus A'
p2122
(lp2123
S'NOK'
p2124
aS'63.9429'
p2125
aS'98.29'
p2126
aS'6285'
p2127
aS'1.04'
p2128
aS'108.62'
p2129
aS'6945'
p2130
aS'10.50'
p2131
aS'660'
p2132
asg72
(lp2133
S'NOK'
p2134
aS'7.3194'
p2135
aS'938.52'
p2136
aS'6869'
p2137
aS'0.16'
p2138
aS'1041.65'
p2139
aS'7624'
p2140
aS'10.99'
p2141
aS'755'
p2142
asa(dp2143
S'KLP AksjeGlobal Indeks V'
p2144
(lp2145
S'NOK'
p2146
aS'6.8995'
p2147
aS'1051.39'
p2148
aS'7254'
p2149
aS'-0.23'
p2150
aS'1103.83'
p2151
aS'7616'
p2152
aS'4.99'
p2153
aS'362'
p2154
asS'KLP AksjeFremvoksende Markeder Indeks II'
p2155
(lp2156
S'NOK'
p2157
aS'3.4003'
p2158
aS'1514.57'
p2159
aS'5150'
p2160
aS'-1.06'
p2161
aS'1495.59'
p2162
aS'5085'
p2163
aS'-1.25'
p2164
aS'-65'
p2165
asS'Global X MSCI SuperDividend EAFE ETF'
p2166
(lp2167
S'USD'
p2168
aS'153'
p2169
aS'15.83'
p2170
aS'0.00'
p2171
aS'15.71'
p2172
aS'2404'
p2173
aS'20915'
p2174
aS'1.67'
p2175
aS'343.16'
p2176
asS'Alfred Berg Gambak'
p2177
(lp2178
S'NOK'
p2179
aS'0.2470'
p2180
aS'23173.37'
p2181
aS'5724'
p2182
aS'-0.40'
p2183
aS'25862.08'
p2184
aS'6388'
p2185
aS'11.60'
p2186
aS'664'
p2187
asS'Delphi Nordic'
p2188
(lp2189
S'NOK'
p2190
aS'0.1754'
p2191
aS'29608.42'
p2192
aS'5193'
p2193
aS'-0.11'
p2194
aS'29981.81'
p2195
aS'5259'
p2196
aS'1.26'
p2197
aS'65'
p2198
asS'Global X SuperIncome Preferred ETF'
p2199
(lp2200
S'USD'
p2201
aS'187'
p2202
aS'13.43'
p2203
aS'0.39'
p2204
aS'12.88'
p2205
aS'2409'
p2206
aS'20958'
p2207
aS'2.38'
p2208
aS'487'
p2209
asS'date'
p2210
(lp2211
F1482251856.386945
aS'20.12.16'
p2212
asS'Alfred Berg Nordisk Eiendom C'
p2213
(lp2214
S'NOK'
p2215
aS'40.8312'
p2216
aS'109.46'
p2217
aS'4469'
p2218
aS'0.61'
p2219
aS'105.68'
p2220
aS'4315'
p2221
aS'-3.45'
p2222
aS'-154'
p2223
asS'SKAGEN Focus A'
p2224
(lp2225
S'NOK'
p2226
aS'63.9429'
p2227
aS'98.29'
p2228
aS'6285'
p2229
aS'-0.29'
p2230
aS'108.30'
p2231
aS'6925'
p2232
aS'10.18'
p2233
aS'640'
p2234
asg72
(lp2235
S'NOK'
p2236
aS'7.3194'
p2237
aS'938.52'
p2238
aS'6869'
p2239
aS'0.27'
p2240
aS'1044.48'
p2241
aS'7645'
p2242
aS'11.29'
p2243
aS'776'
p2244
asa(dp2245
S'KLP AksjeGlobal Indeks V'
p2246
(lp2247
S'NOK'
p2248
aS'6.8995'
p2249
aS'1051.39'
p2250
aS'7254'
p2251
aS'0.57'
p2252
aS'1110.08'
p2253
aS'7659'
p2254
aS'5.58'
p2255
aS'405'
p2256
asS'KLP AksjeFremvoksende Markeder Indeks II'
p2257
(lp2258
S'NOK'
p2259
aS'3.4003'
p2260
aS'1514.57'
p2261
aS'5150'
p2262
aS'0.47'
p2263
aS'1502.56'
p2264
aS'5109'
p2265
aS'-0.79'
p2266
aS'-41'
p2267
asS'Alfred Berg Nordisk Eiendom C'
p2268
(lp2269
S'NOK'
p2270
aS'40.8312'
p2271
aS'109.46'
p2272
aS'4469'
p2273
aS'-0.01'
p2274
aS'105.67'
p2275
aS'4315'
p2276
aS'-3.46'
p2277
aS'-155'
p2278
asS'Global X MSCI SuperDividend EAFE ETF'
p2279
(lp2280
S'USD'
p2281
aS'153'
p2282
aS'15.83'
p2283
aS'0.00'
p2284
aS'15.71'
p2285
aS'2404'
p2286
aS'20847'
p2287
aS'1.34'
p2288
aS'275.16'
p2289
asS'Alfred Berg Gambak'
p2290
(lp2291
S'NOK'
p2292
aS'0.2470'
p2293
aS'23173.37'
p2294
aS'5724'
p2295
aS'-0.11'
p2296
aS'25834.85'
p2297
aS'6381'
p2298
aS'11.49'
p2299
aS'657'
p2300
asS'Delphi Nordic'
p2301
(lp2302
S'NOK'
p2303
aS'0.1754'
p2304
aS'29608.42'
p2305
aS'5193'
p2306
aS'0.25'
p2307
aS'30076.83'
p2308
aS'5275'
p2309
aS'1.58'
p2310
aS'82'
p2311
asS'date'
p2312
(lp2313
F1482348443.097964
aS'21.12.16'
p2314
asS'Global X SuperIncome Preferred ETF'
p2315
(lp2316
S'USD'
p2317
aS'187'
p2318
aS'13.43'
p2319
aS'0.31'
p2320
aS'12.89'
p2321
aS'2410'
p2322
aS'20906'
p2323
aS'2.12'
p2324
aS'435'
p2325
asS'SKAGEN Focus A'
p2326
(lp2327
S'NOK'
p2328
aS'63.9429'
p2329
aS'98.29'
p2330
aS'6285'
p2331
aS'-0.06'
p2332
aS'108.77'
p2333
aS'6955'
p2334
aS'10.66'
p2335
aS'670'
p2336
asg72
(lp2337
S'NOK'
p2338
aS'7.3194'
p2339
aS'938.52'
p2340
aS'6869'
p2341
aS'0.19'
p2342
aS'1046.42'
p2343
aS'7659'
p2344
aS'11.50'
p2345
aS'790'
p2346
asa(dp2347
S'KLP AksjeGlobal Indeks V'
p2348
(lp2349
S'NOK'
p2350
aS'6.8995'
p2351
aS'1051.39'
p2352
aS'7254'
p2353
aS'-0.49'
p2354
aS'1104.68'
p2355
aS'7622'
p2356
aS'5.07'
p2357
aS'368'
p2358
asS'KLP AksjeFremvoksende Markeder Indeks II'
p2359
(lp2360
S'NOK'
p2361
aS'3.4003'
p2362
aS'1514.57'
p2363
aS'5150'
p2364
aS'-0.46'
p2365
aS'1495.60'
p2366
aS'5085'
p2367
aS'-1.25'
p2368
aS'-65'
p2369
asS'Global X MSCI SuperDividend EAFE ETF'
p2370
(lp2371
S'USD'
p2372
aS'153'
p2373
aS'15.83'
p2374
aS'0.00'
p2375
aS'15.71'
p2376
aS'2404'
p2377
aS'20955'
p2378
aS'1.86'
p2379
aS'383.16'
p2380
asS'Alfred Berg Gambak'
p2381
(lp2382
S'NOK'
p2383
aS'0.2470'
p2384
aS'23173.37'
p2385
aS'5724'
p2386
aS'-0.16'
p2387
aS'25794.46'
p2388
aS'6371'
p2389
aS'11.31'
p2390
aS'647'
p2391
asS'Delphi Nordic'
p2392
(lp2393
S'NOK'
p2394
aS'0.1754'
p2395
aS'29608.42'
p2396
aS'5193'
p2397
aS'0.42'
p2398
aS'30203.55'
p2399
aS'5298'
p2400
aS'2.01'
p2401
aS'104'
p2402
asS'Global X SuperIncome Preferred ETF'
p2403
(lp2404
S'USD'
p2405
aS'187'
p2406
aS'13.43'
p2407
aS'-0.08'
p2408
aS'12.91'
p2409
aS'2414'
p2410
aS'21047'
p2411
aS'2.81'
p2412
aS'575'
p2413
asS'date'
p2414
(lp2415
F1482483275.268944
aS'23.12.16'
p2416
asS'Alfred Berg Nordisk Eiendom C'
p2417
(lp2418
S'NOK'
p2419
aS'30.6234'
p2420
aS'109.46'
p2421
aS'3352'
p2422
aS'0.93'
p2423
aS'107.04'
p2424
aS'3278'
p2425
aS'-2.21'
p2426
aS'-74'
p2427
asS'SKAGEN Focus A'
p2428
(lp2429
S'NOK'
p2430
aS'63.9429'
p2431
aS'98.29'
p2432
aS'6285'
p2433
aS'0.11'
p2434
aS'108.89'
p2435
aS'6963'
p2436
aS'10.78'
p2437
aS'678'
p2438
asg72
(lp2439
S'NOK'
p2440
aS'7.3194'
p2441
aS'938.52'
p2442
aS'6869'
p2443
aS'-0.65'
p2444
aS'1039.64'
p2445
aS'7610'
p2446
aS'10.77'
p2447
aS'740'
p2448
asa(dp2449
S'KLP AksjeGlobal Indeks V'
p2450
(lp2451
S'NOK'
p2452
aS'6.8995'
p2453
aS'1051.39'
p2454
aS'7254'
p2455
aS'-0.02'
p2456
aS'1108.19'
p2457
aS'7646'
p2458
aS'5.40'
p2459
aS'392'
p2460
asS'KLP AksjeFremvoksende Markeder Indeks II'
p2461
(lp2462
S'NOK'
p2463
aS'3.4003'
p2464
aS'1514.57'
p2465
aS'5150'
p2466
aS'-0.23'
p2467
aS'1484.31'
p2468
aS'5047'
p2469
aS'-2.00'
p2470
aS'-103'
p2471
asS'Alfred Berg Nordisk Eiendom C'
p2472
(lp2473
S'NOK'
p2474
aS'30.6234'
p2475
aS'109.46'
p2476
aS'3352'
p2477
aS'0.44'
p2478
aS'107.51'
p2479
aS'3292'
p2480
aS'-1.78'
p2481
aS'-60'
p2482
asS'Global X MSCI SuperDividend EAFE ETF'
p2483
(lp2484
S'USD'
p2485
aS'153'
p2486
aS'15.83'
p2487
aS'0.00'
p2488
aS'15.71'
p2489
aS'2404'
p2490
aS'20947'
p2491
aS'1.82'
p2492
aS'375.16'
p2493
asS'Alfred Berg Gambak'
p2494
(lp2495
S'NOK'
p2496
aS'0.2470'
p2497
aS'23173.37'
p2498
aS'5724'
p2499
aS'0.31'
p2500
aS'25918.95'
p2501
aS'6402'
p2502
aS'11.85'
p2503
aS'678'
p2504
asS'Delphi Nordic'
p2505
(lp2506
S'NOK'
p2507
aS'0.1754'
p2508
aS'29608.42'
p2509
aS'5193'
p2510
aS'-0.15'
p2511
aS'30159.22'
p2512
aS'5290'
p2513
aS'1.86'
p2514
aS'97'
p2515
asS'date'
p2516
(lp2517
F1482850150.5319221
aS'27.12.16'
p2518
asS'Global X SuperIncome Preferred ETF'
p2519
(lp2520
S'USD'
p2521
aS'187'
p2522
aS'13.43'
p2523
aS'-0.23'
p2524
aS'12.92'
p2525
aS'2416'
p2526
aS'21055'
p2527
aS'2.85'
p2528
aS'584'
p2529
asS'SKAGEN Focus A'
p2530
(lp2531
S'NOK'
p2532
aS'63.9429'
p2533
aS'98.29'
p2534
aS'6285'
p2535
aS'0.25'
p2536
aS'109.17'
p2537
aS'6981'
p2538
aS'11.06'
p2539
aS'695'
p2540
asg72
(lp2541
S'NOK'
p2542
aS'7.3194'
p2543
aS'938.52'
p2544
aS'6869'
p2545
aS'0.36'
p2546
aS'1041.63'
p2547
aS'7624'
p2548
aS'10.99'
p2549
aS'755'
p2550
asa(dp2551
S'KLP AksjeGlobal Indeks V'
p2552
(lp2553
S'NOK'
p2554
aS'6.8995'
p2555
aS'1051.39'
p2556
aS'7254'
p2557
aS'0.00'
p2558
aS'1111.74'
p2559
aS'7670'
p2560
aS'5.74'
p2561
aS'416'
p2562
asS'KLP AksjeFremvoksende Markeder Indeks II'
p2563
(lp2564
S'NOK'
p2565
aS'3.4003'
p2566
aS'1514.57'
p2567
aS'5150'
p2568
aS'0.00'
p2569
aS'1493.39'
p2570
aS'5078'
p2571
aS'-1.40'
p2572
aS'-72'
p2573
asS'Global X MSCI SuperDividend EAFE ETF'
p2574
(lp2575
S'USD'
p2576
aS'153'
p2577
aS'15.83'
p2578
aS'0.00'
p2579
aS'15.71'
p2580
aS'2404'
p2581
aS'20967'
p2582
aS'1.92'
p2583
aS'395.16'
p2584
asS'Alfred Berg Gambak'
p2585
(lp2586
S'NOK'
p2587
aS'0.2470'
p2588
aS'23173.37'
p2589
aS'5724'
p2590
aS'0.00'
p2591
aS'26091.45'
p2592
aS'6445'
p2593
aS'12.59'
p2594
aS'721'
p2595
asS'Delphi Nordic'
p2596
(lp2597
S'NOK'
p2598
aS'0.1754'
p2599
aS'29608.42'
p2600
aS'5193'
p2601
aS'0.00'
p2602
aS'30373.12'
p2603
aS'5327'
p2604
aS'2.58'
p2605
aS'134'
p2606
asS'Global X SuperIncome Preferred ETF'
p2607
(lp2608
S'USD'
p2609
aS'187'
p2610
aS'13.43'
p2611
aS'-0.62'
p2612
aS'12.81'
p2613
aS'2395'
p2614
aS'20895'
p2615
aS'2.07'
p2616
aS'424'
p2617
asS'date'
p2618
(lp2619
F1482935739.3369429
aS'28.12.16'
p2620
asS'Alfred Berg Nordisk Eiendom C'
p2621
(lp2622
S'NOK'
p2623
aS'30.6234'
p2624
aS'109.46'
p2625
aS'3352'
p2626
aS'0.00'
p2627
aS'108.02'
p2628
aS'3308'
p2629
aS'-1.31'
p2630
aS'-44'
p2631
asS'SKAGEN Focus A'
p2632
(lp2633
S'NOK'
p2634
aS'63.9429'
p2635
aS'98.29'
p2636
aS'6285'
p2637
aS'0.00'
p2638
aS'109.64'
p2639
aS'7010'
p2640
aS'11.54'
p2641
aS'725'
p2642
asg72
(lp2643
S'NOK'
p2644
aS'7.3194'
p2645
aS'938.52'
p2646
aS'6869'
p2647
aS'0.00'
p2648
aS'1049.12'
p2649
aS'7679'
p2650
aS'11.78'
p2651
aS'810'
p2652
asa(dp2653
S'KLP AksjeGlobal Indeks V'
p2654
(lp2655
S'NOK'
p2656
aS'6.8995'
p2657
aS'1051.39'
p2658
aS'7254'
p2659
aS'-0.27'
p2660
aS'1108.78'
p2661
aS'7650'
p2662
aS'5.46'
p2663
aS'396'
p2664
asS'KLP AksjeFremvoksende Markeder Indeks II'
p2665
(lp2666
S'NOK'
p2667
aS'3.4003'
p2668
aS'1514.57'
p2669
aS'5150'
p2670
aS'1.21'
p2671
aS'1511.43'
p2672
aS'5139'
p2673
aS'-0.21'
p2674
aS'-11'
p2675
asS'Alfred Berg Nordisk Eiendom C'
p2676
(lp2677
S'NOK'
p2678
aS'30.6234'
p2679
aS'109.46'
p2680
aS'3352'
p2681
aS'0.49'
p2682
aS'109.11'
p2683
aS'3341'
p2684
aS'-0.32'
p2685
aS'-11'
p2686
asS'Global X MSCI SuperDividend EAFE ETF'
p2687
(lp2688
S'USD'
p2689
aS'153'
p2690
aS'15.83'
p2691
aS'0.00'
p2692
aS'15.71'
p2693
aS'2404'
p2694
aS'20822'
p2695
aS'1.22'
p2696
aS'250.16'
p2697
asS'Alfred Berg Gambak'
p2698
(lp2699
S'NOK'
p2700
aS'0.2470'
p2701
aS'23173.37'
p2702
aS'5724'
p2703
aS'0.00'
p2704
aS'26091.65'
p2705
aS'6445'
p2706
aS'12.59'
p2707
aS'721'
p2708
asS'Delphi Nordic'
p2709
(lp2710
S'NOK'
p2711
aS'0.1754'
p2712
aS'29608.42'
p2713
aS'5193'
p2714
aS'-0.02'
p2715
aS'30494.45'
p2716
aS'5349'
p2717
aS'2.99'
p2718
aS'155'
p2719
asS'date'
p2720
(lp2721
F1483032550.6972411
aS'29.12.16'
p2722
asS'Global X SuperIncome Preferred ETF'
p2723
(lp2724
S'USD'
p2725
aS'187'
p2726
aS'13.43'
p2727
aS'0.63'
p2728
aS'12.84'
p2729
aS'2401'
p2730
aS'20800'
p2731
aS'1.61'
p2732
aS'329'
p2733
asS'SKAGEN Focus A'
p2734
(lp2735
S'NOK'
p2736
aS'64.8551'
p2737
aS'98.45'
p2738
aS'6385'
p2739
aS'-0.01'
p2740
aS'109.63'
p2741
aS'7110'
p2742
aS'11.35'
p2743
aS'725'
p2744
asg72
(lp2745
S'NOK'
p2746
aS'7.7594'
p2747
aS'944.59'
p2748
aS'7329'
p2749
aS'-0.35'
p2750
aS'1045.45'
p2751
aS'8112'
p2752
aS'10.68'
p2753
aS'783'
p2754
asa(dp2755
S'KLP AksjeGlobal Indeks V'
p2756
(lp2757
S'NOK'
p2758
aS'7.2783'
p2759
aS'1054.38'
p2760
aS'7674'
p2761
aS'-0.81'
p2762
aS'1099.85'
p2763
aS'8005'
p2764
aS'4.31'
p2765
aS'331'
p2766
asS'KLP AksjeFremvoksende Markeder Indeks II'
p2767
(lp2768
S'NOK'
p2769
aS'3.5857'
p2770
aS'1514.35'
p2771
aS'5430'
p2772
aS'-0.08'
p2773
aS'1510.23'
p2774
aS'5415'
p2775
aS'-0.27'
p2776
aS'-15'
p2777
asS'Global X MSCI SuperDividend EAFE ETF'
p2778
(lp2779
S'USD'
p2780
aS'153'
p2781
aS'15.83'
p2782
aS'0.00'
p2783
aS'15.71'
p2784
aS'2404'
p2785
aS'20739'
p2786
aS'0.81'
p2787
aS'167.16'
p2788
asS'Alfred Berg Gambak'
p2789
(lp2790
S'NOK'
p2791
aS'0.2646'
p2792
aS'23370.46'
p2793
aS'6184'
p2794
aS'0.11'
p2795
aS'26120.16'
p2796
aS'6911'
p2797
aS'11.77'
p2798
aS'728'
p2799
asS'Delphi Nordic'
p2800
(lp2801
S'NOK'
p2802
aS'0.1813'
p2803
aS'29637.71'
p2804
aS'5373'
p2805
aS'0.39'
p2806
aS'30612.60'
p2807
aS'5550'
p2808
aS'3.29'
p2809
aS'177'
p2810
asS'Global X SuperIncome Preferred ETF'
p2811
(lp2812
S'USD'
p2813
aS'187'
p2814
aS'13.43'
p2815
aS'0.00'
p2816
aS'12.80'
p2817
aS'2394'
p2818
aS'20652'
p2819
aS'0.88'
p2820
aS'181'
p2821
asS'date'
p2822
(lp2823
F1483201102.28596
aS'31.12.16'
p2824
asS'Alfred Berg Nordisk Eiendom C'
p2825
(lp2826
S'NOK'
p2827
aS'31.5399'
p2828
aS'109.45'
p2829
aS'3452'
p2830
aS'1.28'
p2831
aS'110.51'
p2832
aS'3485'
p2833
aS'0.97'
p2834
aS'34'
p2835
asS'SKAGEN Focus A'
p2836
(lp2837
S'NOK'
p2838
aS'64.8551'
p2839
aS'98.45'
p2840
aS'6385'
p2841
aS'-0.90'
p2842
aS'108.64'
p2843
aS'7046'
p2844
aS'10.35'
p2845
aS'661'
p2846
asg72
(lp2847
S'NOK'
p2848
aS'7.7594'
p2849
aS'944.59'
p2850
aS'7329'
p2851
aS'-0.71'
p2852
aS'1038.01'
p2853
aS'8054'
p2854
aS'9.89'
p2855
aS'725'
p2856
asa(dp2857
S'DNB Teknologi'
p2858
(lp2859
S'NOK'
p2860
aS'7.7594'
p2861
aS'944.59'
p2862
aS'7329'
p2863
aS'-0.58'
p2864
aS'1031.99'
p2865
aS'8008'
p2866
aS'9.25'
p2867
aS'678'
p2868
asS'KLP AksjeGlobal Indeks V'
p2869
(lp2870
S'NOK'
p2871
aS'7.2783'
p2872
aS'1054.38'
p2873
aS'7674'
p2874
aS'-0.64'
p2875
aS'1092.80'
p2876
aS'7954'
p2877
aS'3.64'
p2878
aS'280'
p2879
asS'KLP AksjeFremvoksende Markeder Indeks II'
p2880
(lp2881
S'NOK'
p2882
aS'3.5857'
p2883
aS'1514.35'
p2884
aS'5430'
p2885
aS'-0.11'
p2886
aS'1508.63'
p2887
aS'5409'
p2888
aS'-0.38'
p2889
aS'-21'
p2890
asS'Global X MSCI SuperDividend EAFE ETF'
p2891
(lp2892
S'USD'
p2893
aS'153'
p2894
aS'15.83'
p2895
aS'0.00'
p2896
aS'15.71'
p2897
aS'2404'
p2898
aS'20800'
p2899
aS'1.11'
p2900
aS'228.16'
p2901
asS'Alfred Berg Gambak'
p2902
(lp2903
S'NOK'
p2904
aS'0.2646'
p2905
aS'23370.46'
p2906
aS'6184'
p2907
aS'-0.07'
p2908
aS'26101.20'
p2909
aS'6906'
p2910
aS'11.68'
p2911
aS'723'
p2912
asS'Delphi Nordic'
p2913
(lp2914
S'NOK'
p2915
aS'0.1813'
p2916
aS'29637.71'
p2917
aS'5373'
p2918
aS'1.25'
p2919
aS'30994.59'
p2920
aS'5619'
p2921
aS'4.58'
p2922
aS'246'
p2923
asS'date'
p2924
(lp2925
F1483399123.487947
aS'03.01.17'
p2926
asS'Alfred Berg Nordisk Eiendom C'
p2927
(lp2928
S'NOK'
p2929
aS'31.5399'
p2930
aS'109.45'
p2931
aS'3452'
p2932
aS'0.43'
p2933
aS'110.99'
p2934
aS'3501'
p2935
aS'1.41'
p2936
aS'49'
p2937
asS'SKAGEN Focus A'
p2938
(lp2939
S'NOK'
p2940
aS'64.8551'
p2941
aS'98.45'
p2942
aS'6385'
p2943
aS'0.52'
p2944
aS'108.24'
p2945
aS'7020'
p2946
aS'9.95'
p2947
aS'635'
p2948
asS'Global X SuperIncome Preferred ETF'
p2949
(lp2950
S'USD'
p2951
aS'187'
p2952
aS'13.43'
p2953
aS'0.00'
p2954
aS'12.80'
p2955
aS'2394'
p2956
aS'20714'
p2957
aS'1.18'
p2958
aS'242'
p2959
asa(dp2960
S'KLP AksjeGlobal Indeks V'
p2961
(lp2962
S'NOK'
p2963
aS'7.2783'
p2964
aS'1054.38'
p2965
aS'7674'
p2966
aS'0.00'
p2967
aS'1092.83'
p2968
aS'7954'
p2969
aS'3.65'
p2970
aS'280'
p2971
asS'KLP AksjeFremvoksende Markeder Indeks II'
p2972
(lp2973
S'NOK'
p2974
aS'3.5857'
p2975
aS'1514.35'
p2976
aS'5430'
p2977
aS'0.01'
p2978
aS'1508.77'
p2979
aS'5410'
p2980
aS'-0.37'
p2981
aS'-20'
p2982
asS'Global X MSCI SuperDividend EAFE ETF'
p2983
(lp2984
S'USD'
p2985
aS'153'
p2986
aS'15.83'
p2987
aS'0.00'
p2988
aS'15.71'
p2989
aS'2404'
p2990
aS'20524'
p2991
aS'-0.23'
p2992
aS'-47.84'
p2993
asS'Alfred Berg Gambak'
p2994
(lp2995
S'NOK'
p2996
aS'0.2646'
p2997
aS'23370.46'
p2998
aS'6184'
p2999
aS'-0.76'
p3000
aS'25977.32'
p3001
aS'6874'
p3002
aS'11.15'
p3003
aS'690'
p3004
asS'Delphi Nordic'
p3005
(lp3006
S'NOK'
p3007
aS'0.1813'
p3008
aS'29637.71'
p3009
aS'5373'
p3010
aS'-0.07'
p3011
aS'30643.96'
p3012
aS'5556'
p3013
aS'3.40'
p3014
aS'182'
p3015
asS'Global X SuperIncome Preferred ETF'
p3016
(lp3017
S'USD'
p3018
aS'187'
p3019
aS'13.43'
p3020
aS'0.00'
p3021
aS'12.99'
p3022
aS'2429'
p3023
aS'20741'
p3024
aS'1.32'
p3025
aS'270'
p3026
asS'date'
p3027
(lp3028
F1483839764.398088
aS'08.01.17'
p3029
asS'Alfred Berg Nordisk Eiendom C'
p3030
(lp3031
S'NOK'
p3032
aS'31.5399'
p3033
aS'109.45'
p3034
aS'3452'
p3035
aS'-0.74'
p3036
aS'107.57'
p3037
aS'3393'
p3038
aS'-1.71'
p3039
aS'-59'
p3040
asS'SKAGEN Focus A'
p3041
(lp3042
S'NOK'
p3043
aS'64.8551'
p3044
aS'98.45'
p3045
aS'6385'
p3046
aS'-0.51'
p3047
aS'108.66'
p3048
aS'7047'
p3049
aS'10.37'
p3050
aS'662'
p3051
asS'DNB Teknologi'
p3052
(lp3053
S'NOK'
p3054
aS'7.7594'
p3055
aS'944.59'
p3056
aS'7329'
p3057
aS'-0.46'
p3058
aS'1043.47'
p3059
aS'8097'
p3060
aS'10.47'
p3061
aS'767'
p3062
asa(dp3063
S'KLP AksjeGlobal Indeks V'
p3064
(lp3065
S'NOK'
p3066
aS'7.2783'
p3067
aS'1054.38'
p3068
aS'7674'
p3069
aS'0.18'
p3070
aS'1100.62'
p3071
aS'8011'
p3072
aS'4.39'
p3073
aS'337'
p3074
asS'KLP AksjeFremvoksende Markeder Indeks II'
p3075
(lp3076
S'NOK'
p3077
aS'3.5857'
p3078
aS'1514.35'
p3079
aS'5430'
p3080
aS'0.09'
p3081
aS'1525.29'
p3082
aS'5469'
p3083
aS'0.72'
p3084
aS'39'
p3085
asS'yield'
p3086
(dp3087
S'Global X MSCI SuperDividend EAFE ETF'
p3088
F31.510000000000002
sS'Global X SuperIncome Preferred ETF'
p3089
F119.94
ssS'Global X MSCI SuperDividend EAFE ETF'
p3090
(lp3091
S'USD'
p3092
aS'153'
p3093
aS'15.83'
p3094
aS'0.00'
p3095
aS'15.71'
p3096
aS'2404'
p3097
aS'20617'
p3098
aS'0.22'
p3099
aS'45.16'
p3100
asS'Alfred Berg Gambak'
p3101
(lp3102
S'NOK'
p3103
aS'0.2646'
p3104
aS'23370.46'
p3105
aS'6184'
p3106
aS'0.25'
p3107
aS'26043.53'
p3108
aS'6891'
p3109
aS'11.44'
p3110
aS'707'
p3111
asS'Delphi Nordic'
p3112
(lp3113
S'NOK'
p3114
aS'0.1813'
p3115
aS'29637.71'
p3116
aS'5373'
p3117
aS'-0.41'
p3118
aS'30517.75'
p3119
aS'5533'
p3120
aS'2.97'
p3121
aS'160'
p3122
asS'Global X SuperIncome Preferred ETF'
p3123
(lp3124
S'USD'
p3125
aS'187'
p3126
aS'13.43'
p3127
aS'0.00'
p3128
aS'12.95'
p3129
aS'2422'
p3130
aS'20771'
p3131
aS'1.46'
p3132
aS'300'
p3133
asS'date'
p3134
(lp3135
F1484048391.0998521
aS'10.01.17'
p3136
asS'Alfred Berg Nordisk Eiendom C'
p3137
(lp3138
S'NOK'
p3139
aS'31.5399'
p3140
aS'109.45'
p3141
aS'3452'
p3142
aS'0.00'
p3143
aS'106.71'
p3144
aS'3366'
p3145
aS'-2.50'
p3146
aS'-86'
p3147
asS'SKAGEN Focus A'
p3148
(lp3149
S'NOK'
p3150
aS'64.8551'
p3151
aS'98.45'
p3152
aS'6385'
p3153
aS'-0.13'
p3154
aS'108.52'
p3155
aS'7038'
p3156
aS'10.22'
p3157
aS'653'
p3158
asS'DNB Teknologi'
p3159
(lp3160
S'NOK'
p3161
aS'7.7594'
p3162
aS'944.59'
p3163
aS'7329'
p3164
aS'0.55'
p3165
aS'1053.34'
p3166
aS'8173'
p3167
aS'11.51'
p3168
aS'844'
p3169
asa(dp3170
S'KLP AksjeGlobal Indeks V'
p3171
(lp3172
S'NOK'
p3173
aS'7.2783'
p3174
aS'1054.38'
p3175
aS'7674'
p3176
aS'0.50'
p3177
aS'1107.55'
p3178
aS'8061'
p3179
aS'5.04'
p3180
aS'387'
p3181
asS'KLP AksjeFremvoksende Markeder Indeks II'
p3182
(lp3183
S'NOK'
p3184
aS'3.5857'
p3185
aS'1514.35'
p3186
aS'5430'
p3187
aS'1.16'
p3188
aS'1546.36'
p3189
aS'5545'
p3190
aS'2.11'
p3191
aS'115'
p3192
asS'Global X MSCI SuperDividend EAFE ETF'
p3193
(lp3194
S'USD'
p3195
aS'153'
p3196
aS'15.83'
p3197
aS'1.02'
p3198
aS'15.87'
p3199
aS'2428'
p3200
aS'20987'
p3201
aS'2.02'
p3202
aS'415.16'
p3203
asS'Alfred Berg Gambak'
p3204
(lp3205
S'NOK'
p3206
aS'0.2646'
p3207
aS'23370.46'
p3208
aS'6184'
p3209
aS'-0.09'
p3210
aS'25739.93'
p3211
aS'6811'
p3212
aS'10.14'
p3213
aS'627'
p3214
asS'Delphi Nordic'
p3215
(lp3216
S'NOK'
p3217
aS'0.1813'
p3218
aS'29637.71'
p3219
aS'5373'
p3220
aS'0.77'
p3221
aS'30753.33'
p3222
aS'5576'
p3223
aS'3.76'
p3224
aS'202'
p3225
asS'Global X SuperIncome Preferred ETF'
p3226
(lp3227
S'USD'
p3228
aS'187'
p3229
aS'13.43'
p3230
aS'0.00'
p3231
aS'13.01'
p3232
aS'2433'
p3233
aS'21028'
p3234
aS'2.72'
p3235
aS'556'
p3236
asS'date'
p3237
(lp3238
F1484151994.778183
aS'11.01.17'
p3239
asS'Alfred Berg Nordisk Eiendom C'
p3240
(lp3241
S'NOK'
p3242
aS'31.5399'
p3243
aS'109.45'
p3244
aS'3452'
p3245
aS'0.53'
p3246
aS'107.28'
p3247
aS'3384'
p3248
aS'-1.98'
p3249
aS'-68'
p3250
asS'SKAGEN Focus A'
p3251
(lp3252
S'NOK'
p3253
aS'64.8551'
p3254
aS'98.45'
p3255
aS'6385'
p3256
aS'0.56'
p3257
aS'109.13'
p3258
aS'7077'
p3259
aS'10.84'
p3260
aS'692'
p3261
asS'DNB Teknologi'
p3262
(lp3263
S'NOK'
p3264
aS'7.7594'
p3265
aS'944.59'
p3266
aS'7329'
p3267
aS'0.55'
p3268
aS'1059.15'
p3269
aS'8218'
p3270
aS'12.13'
p3271
aS'889'
p3272
asa(dp3273
S'DNB Teknologi'
p3274
(lp3275
S'NOK'
p3276
aS'7.7594'
p3277
aS'944.59'
p3278
aS'7329'
p3279
aS'-1.47'
p3280
aS'1050.31'
p3281
aS'8150'
p3282
aS'11.19'
p3283
aS'820'
p3284
asS'KLP AksjeGlobal Indeks V'
p3285
(lp3286
S'NOK'
p3287
aS'7.2783'
p3288
aS'1054.38'
p3289
aS'7674'
p3290
aS'0.69'
p3291
aS'1115.20'
p3292
aS'8117'
p3293
aS'5.77'
p3294
aS'443'
p3295
asS'KLP AksjeFremvoksende Markeder Indeks II'
p3296
(lp3297
S'NOK'
p3298
aS'3.5857'
p3299
aS'1514.35'
p3300
aS'5430'
p3301
aS'0.86'
p3302
aS'1559.64'
p3303
aS'5592'
p3304
aS'2.99'
p3305
aS'162'
p3306
asS'Global X MSCI SuperDividend EAFE ETF'
p3307
(lp3308
S'USD'
p3309
aS'153'
p3310
aS'15.83'
p3311
aS'0.00'
p3312
aS'15.90'
p3313
aS'2433'
p3314
aS'20694'
p3315
aS'0.59'
p3316
aS'122.16'
p3317
asS'Alfred Berg Gambak'
p3318
(lp3319
S'NOK'
p3320
aS'0.2646'
p3321
aS'23370.46'
p3322
aS'6184'
p3323
aS'0.66'
p3324
aS'25910.79'
p3325
aS'6856'
p3326
aS'10.87'
p3327
aS'672'
p3328
asS'Delphi Nordic'
p3329
(lp3330
S'NOK'
p3331
aS'0.1813'
p3332
aS'29637.71'
p3333
aS'5373'
p3334
aS'-0.94'
p3335
aS'30652.89'
p3336
aS'5557'
p3337
aS'3.43'
p3338
aS'184'
p3339
asS'date'
p3340
(lp3341
F1484309201.237968
aS'13.01.17'
p3342
asS'Alfred Berg Nordisk Eiendom C'
p3343
(lp3344
S'NOK'
p3345
aS'31.5399'
p3346
aS'109.45'
p3347
aS'3452'
p3348
aS'0.68'
p3349
aS'107.66'
p3350
aS'3396'
p3351
aS'-1.63'
p3352
aS'-56'
p3353
asS'SKAGEN Focus A'
p3354
(lp3355
S'NOK'
p3356
aS'64.8551'
p3357
aS'98.45'
p3358
aS'6385'
p3359
aS'-1.13'
p3360
aS'108.72'
p3361
aS'7051'
p3362
aS'10.43'
p3363
aS'666'
p3364
asS'Global X SuperIncome Preferred ETF'
p3365
(lp3366
S'USD'
p3367
aS'187'
p3368
aS'13.43'
p3369
aS'0.15'
p3370
aS'13.01'
p3371
aS'2433'
p3372
aS'20695'
p3373
aS'1.09'
p3374
aS'224'
p3375
asa(dp3376
S'KLP AksjeGlobal Indeks V'
p3377
(lp3378
S'NOK'
p3379
aS'7.2783'
p3380
aS'1054.38'
p3381
aS'7674'
p3382
aS'0.24'
p3383
aS'1102.98'
p3384
aS'8028'
p3385
aS'4.61'
p3386
aS'354'
p3387
asS'KLP AksjeFremvoksende Markeder Indeks II'
p3388
(lp3389
S'NOK'
p3390
aS'3.5857'
p3391
aS'1514.35'
p3392
aS'5430'
p3393
aS'-0.11'
p3394
aS'1549.39'
p3395
aS'5556'
p3396
aS'2.31'
p3397
aS'126'
p3398
asS'Global X MSCI SuperDividend EAFE ETF'
p3399
(lp3400
S'USD'
p3401
aS'153'
p3402
aS'15.83'
p3403
aS'0.00'
p3404
aS'15.90'
p3405
aS'2433'
p3406
aS'20759'
p3407
aS'0.91'
p3408
aS'187.16'
p3409
asS'Alfred Berg Gambak'
p3410
(lp3411
S'NOK'
p3412
aS'0.2646'
p3413
aS'23370.46'
p3414
aS'6184'
p3415
aS'0.24'
p3416
aS'25962.75'
p3417
aS'6870'
p3418
aS'11.09'
p3419
aS'686'
p3420
asS'Delphi Nordic'
p3421
(lp3422
S'NOK'
p3423
aS'0.1813'
p3424
aS'29637.71'
p3425
aS'5373'
p3426
aS'-0.40'
p3427
aS'30754.40'
p3428
aS'5576'
p3429
aS'3.77'
p3430
aS'202'
p3431
asS'Global X SuperIncome Preferred ETF'
p3432
(lp3433
S'USD'
p3434
aS'187'
p3435
aS'13.43'
p3436
aS'0.00'
p3437
aS'13.00'
p3438
aS'2431'
p3439
aS'20744'
p3440
aS'1.33'
p3441
aS'273'
p3442
asS'date'
p3443
(lp3444
F1484599047.563796
aS'16.01.17'
p3445
asS'Alfred Berg Nordisk Eiendom C'
p3446
(lp3447
S'NOK'
p3448
aS'31.5399'
p3449
aS'109.45'
p3450
aS'3452'
p3451
aS'-0.32'
p3452
aS'107.59'
p3453
aS'3393'
p3454
aS'-1.70'
p3455
aS'-59'
p3456
asS'SKAGEN Focus A'
p3457
(lp3458
S'NOK'
p3459
aS'64.8551'
p3460
aS'98.45'
p3461
aS'6385'
p3462
aS'-0.25'
p3463
aS'108.78'
p3464
aS'7055'
p3465
aS'10.49'
p3466
aS'670'
p3467
asS'DNB Teknologi'
p3468
(lp3469
S'NOK'
p3470
aS'7.7594'
p3471
aS'944.59'
p3472
aS'7329'
p3473
aS'0.44'
p3474
aS'1054.91'
p3475
aS'8185'
p3476
aS'11.68'
p3477
aS'856'
p3478
asa(dp3479
S'DNB Teknologi'
p3480
(lp3481
S'NOK'
p3482
aS'7.7594'
p3483
aS'944.59'
p3484
aS'7329'
p3485
aS'0.00'
p3486
aS'1049.24'
p3487
aS'8141'
p3488
aS'11.08'
p3489
aS'812'
p3490
asS'KLP AksjeGlobal Indeks V'
p3491
(lp3492
S'NOK'
p3493
aS'7.2783'
p3494
aS'1054.38'
p3495
aS'7674'
p3496
aS'0.00'
p3497
aS'1095.21'
p3498
aS'7971'
p3499
aS'3.87'
p3500
aS'297'
p3501
asS'KLP AksjeFremvoksende Markeder Indeks II'
p3502
(lp3503
S'NOK'
p3504
aS'3.5857'
p3505
aS'1514.35'
p3506
aS'5430'
p3507
aS'-0.07'
p3508
aS'1541.55'
p3509
aS'5528'
p3510
aS'1.80'
p3511
aS'98'
p3512
asS'Global X MSCI SuperDividend EAFE ETF'
p3513
(lp3514
S'USD'
p3515
aS'153'
p3516
aS'15.83'
p3517
aS'0.00'
p3518
aS'15.90'
p3519
aS'2433'
p3520
aS'20593'
p3521
aS'0.10'
p3522
aS'21.16'
p3523
asS'Alfred Berg Gambak'
p3524
(lp3525
S'NOK'
p3526
aS'0.2646'
p3527
aS'23370.46'
p3528
aS'6184'
p3529
aS'-0.02'
p3530
aS'25722.65'
p3531
aS'6806'
p3532
aS'10.06'
p3533
aS'622'
p3534
asS'Delphi Nordic'
p3535
(lp3536
S'NOK'
p3537
aS'0.1813'
p3538
aS'29637.71'
p3539
aS'5373'
p3540
aS'0.10'
p3541
aS'30478.35'
p3542
aS'5526'
p3543
aS'2.84'
p3544
aS'152'
p3545
asS'date'
p3546
(lp3547
F1484820005.151942
aS'19.01.17'
p3548
asS'Alfred Berg Nordisk Eiendom C'
p3549
(lp3550
S'NOK'
p3551
aS'31.5399'
p3552
aS'109.45'
p3553
aS'3452'
p3554
aS'0.03'
p3555
aS'106.59'
p3556
aS'3362'
p3557
aS'-2.61'
p3558
aS'-90'
p3559
asS'SKAGEN Focus A'
p3560
(lp3561
S'NOK'
p3562
aS'64.8551'
p3563
aS'98.45'
p3564
aS'6385'
p3565
aS'0.01'
p3566
aS'108.15'
p3567
aS'7014'
p3568
aS'9.85'
p3569
aS'629'
p3570
asS'Global X SuperIncome Preferred ETF'
p3571
(lp3572
S'USD'
p3573
aS'187'
p3574
aS'13.43'
p3575
aS'0.15'
p3576
aS'13.02'
p3577
aS'2435'
p3578
aS'20611'
p3579
aS'0.68'
p3580
aS'139'
p3581
asa(dp3582
S'KLP AksjeGlobal Indeks V'
p3583
(lp3584
S'NOK'
p3585
aS'7.2783'
p3586
aS'1054.38'
p3587
aS'7674'
p3588
aS'-0.08'
p3589
aS'1094.35'
p3590
aS'7965'
p3591
aS'3.79'
p3592
aS'291'
p3593
asS'KLP AksjeFremvoksende Markeder Indeks II'
p3594
(lp3595
S'NOK'
p3596
aS'3.5857'
p3597
aS'1514.35'
p3598
aS'5430'
p3599
aS'0.10'
p3600
aS'1543.17'
p3601
aS'5533'
p3602
aS'1.90'
p3603
aS'103'
p3604
asS'Global X MSCI SuperDividend EAFE ETF'
p3605
(lp3606
S'USD'
p3607
aS'153'
p3608
aS'15.83'
p3609
aS'0.00'
p3610
aS'15.90'
p3611
aS'2433'
p3612
aS'20557'
p3613
aS'-0.07'
p3614
aS'-14.84'
p3615
asS'Alfred Berg Gambak'
p3616
(lp3617
S'NOK'
p3618
aS'0.2646'
p3619
aS'23370.46'
p3620
aS'6184'
p3621
aS'1.20'
p3622
aS'26032.56'
p3623
aS'6888'
p3624
aS'11.39'
p3625
aS'704'
p3626
asS'Delphi Nordic'
p3627
(lp3628
S'NOK'
p3629
aS'0.1813'
p3630
aS'29637.71'
p3631
aS'5373'
p3632
aS'0.21'
p3633
aS'30542.35'
p3634
aS'5537'
p3635
aS'3.05'
p3636
aS'164'
p3637
asS'Global X SuperIncome Preferred ETF'
p3638
(lp3639
S'USD'
p3640
aS'187'
p3641
aS'13.43'
p3642
aS'0.15'
p3643
aS'12.94'
p3644
aS'2420'
p3645
aS'20447'
p3646
aS'-0.12'
p3647
aS'-24'
p3648
asS'date'
p3649
(lp3650
F1484906813.871563
aS'20.01.17'
p3651
asS'Alfred Berg Nordisk Eiendom C'
p3652
(lp3653
S'NOK'
p3654
aS'31.5399'
p3655
aS'109.45'
p3656
aS'3452'
p3657
aS'-0.48'
p3658
aS'106.08'
p3659
aS'3346'
p3660
aS'-3.07'
p3661
aS'-106'
p3662
asS'SKAGEN Focus A'
p3663
(lp3664
S'NOK'
p3665
aS'64.8551'
p3666
aS'98.45'
p3667
aS'6385'
p3668
aS'0.50'
p3669
aS'108.69'
p3670
aS'7049'
p3671
aS'10.40'
p3672
aS'664'
p3673
asS'DNB Teknologi'
p3674
(lp3675
S'NOK'
p3676
aS'7.7594'
p3677
aS'944.59'
p3678
aS'7329'
p3679
aS'-0.13'
p3680
aS'1047.92'
p3681
aS'8131'
p3682
aS'10.94'
p3683
aS'802'
p3684
asa(dp3685
S'DNB Teknologi'
p3686
(lp3687
S'NOK'
p3688
aS'7.7594'
p3689
aS'944.59'
p3690
aS'7329'
p3691
aS'-0.38'
p3692
aS'1042.83'
p3693
aS'8092'
p3694
aS'10.40'
p3695
aS'762'
p3696
asS'KLP AksjeGlobal Indeks V'
p3697
(lp3698
S'NOK'
p3699
aS'7.2783'
p3700
aS'1054.38'
p3701
aS'7674'
p3702
aS'-0.40'
p3703
aS'1088.76'
p3704
aS'7924'
p3705
aS'3.26'
p3706
aS'250'
p3707
asS'KLP AksjeFremvoksende Markeder Indeks II'
p3708
(lp3709
S'NOK'
p3710
aS'3.5857'
p3711
aS'1514.35'
p3712
aS'5430'
p3713
aS'0.07'
p3714
aS'1544.23'
p3715
aS'5537'
p3716
aS'1.97'
p3717
aS'107'
p3718
asS'Global X MSCI SuperDividend EAFE ETF'
p3719
(lp3720
S'USD'
p3721
aS'153'
p3722
aS'15.83'
p3723
aS'0.00'
p3724
aS'15.90'
p3725
aS'2433'
p3726
aS'20412'
p3727
aS'-0.78'
p3728
aS'-159.84'
p3729
asS'Alfred Berg Gambak'
p3730
(lp3731
S'NOK'
p3732
aS'0.2646'
p3733
aS'23370.46'
p3734
aS'6184'
p3735
aS'0.88'
p3736
aS'26262.85'
p3737
aS'6949'
p3738
aS'12.38'
p3739
aS'765'
p3740
asS'Delphi Nordic'
p3741
(lp3742
S'NOK'
p3743
aS'0.1813'
p3744
aS'29637.71'
p3745
aS'5373'
p3746
aS'0.35'
p3747
aS'30649.48'
p3748
aS'5557'
p3749
aS'3.41'
p3750
aS'183'
p3751
asS'date'
p3752
(lp3753
F1485167563.620404
aS'23.01.17'
p3754
asS'Alfred Berg Nordisk Eiendom C'
p3755
(lp3756
S'NOK'
p3757
aS'31.5399'
p3758
aS'109.45'
p3759
aS'3452'
p3760
aS'0.25'
p3761
aS'106.35'
p3762
aS'3354'
p3763
aS'-2.83'
p3764
aS'-98'
p3765
asS'SKAGEN Focus A'
p3766
(lp3767
S'NOK'
p3768
aS'64.8551'
p3769
aS'98.45'
p3770
aS'6385'
p3771
aS'-0.29'
p3772
aS'108.38'
p3773
aS'7029'
p3774
aS'10.08'
p3775
aS'644'
p3776
asS'Global X SuperIncome Preferred ETF'
p3777
(lp3778
S'USD'
p3779
aS'187'
p3780
aS'13.43'
p3781
aS'0.00'
p3782
aS'12.92'
p3783
aS'2416'
p3784
aS'20273'
p3785
aS'-0.97'
p3786
aS'-199'
p3787
asa(dp3788
S'KLP AksjeGlobal Indeks V'
p3789
(lp3790
S'NOK'
p3791
aS'7.2783'
p3792
aS'1054.38'
p3793
aS'7674'
p3794
aS'-0.78'
p3795
aS'1080.22'
p3796
aS'7862'
p3797
aS'2.45'
p3798
aS'188'
p3799
asS'KLP AksjeFremvoksende Markeder Indeks II'
p3800
(lp3801
S'NOK'
p3802
aS'3.5857'
p3803
aS'1514.35'
p3804
aS'5430'
p3805
aS'0.29'
p3806
aS'1534.57'
p3807
aS'5503'
p3808
aS'1.34'
p3809
aS'73'
p3810
asS'Global X MSCI SuperDividend EAFE ETF'
p3811
(lp3812
S'USD'
p3813
aS'153'
p3814
aS'15.83'
p3815
aS'0.00'
p3816
aS'16.01'
p3817
aS'2450'
p3818
aS'20395'
p3819
aS'-0.86'
p3820
aS'-176.84'
p3821
asS'Alfred Berg Gambak'
p3822
(lp3823
S'NOK'
p3824
aS'0.2646'
p3825
aS'23370.46'
p3826
aS'6184'
p3827
aS'-0.72'
p3828
aS'26233.98'
p3829
aS'6942'
p3830
aS'12.25'
p3831
aS'758'
p3832
asS'Delphi Nordic'
p3833
(lp3834
S'NOK'
p3835
aS'0.1813'
p3836
aS'29637.71'
p3837
aS'5373'
p3838
aS'-0.49'
p3839
aS'30497.76'
p3840
aS'5529'
p3841
aS'2.90'
p3842
aS'156'
p3843
asS'Global X SuperIncome Preferred ETF'
p3844
(lp3845
S'USD'
p3846
aS'187'
p3847
aS'13.43'
p3848
aS'0.00'
p3849
aS'12.95'
p3850
aS'2422'
p3851
aS'20163'
p3852
aS'-1.51'
p3853
aS'-309'
p3854
asS'date'
p3855
(lp3856
F1485309469.2838249
aS'25.01.17'
p3857
asS'Alfred Berg Nordisk Eiendom C'
p3858
(lp3859
S'NOK'
p3860
aS'31.5399'
p3861
aS'109.45'
p3862
aS'3452'
p3863
aS'0.42'
p3864
aS'106.80'
p3865
aS'3368'
p3866
aS'-2.42'
p3867
aS'-83'
p3868
asS'SKAGEN Focus A'
p3869
(lp3870
S'NOK'
p3871
aS'64.8551'
p3872
aS'98.45'
p3873
aS'6385'
p3874
aS'-0.85'
p3875
aS'107.45'
p3876
aS'6969'
p3877
aS'9.14'
p3878
aS'584'
p3879
asS'DNB Teknologi'
p3880
(lp3881
S'NOK'
p3882
aS'7.7594'
p3883
aS'944.59'
p3884
aS'7329'
p3885
aS'-0.55'
p3886
aS'1037.07'
p3887
aS'8047'
p3888
aS'9.79'
p3889
aS'718'
p3890
asa(dp3891
S'DNB Teknologi'
p3892
(lp3893
S'NOK'
p3894
aS'7.7594'
p3895
aS'944.59'
p3896
aS'7329'
p3897
aS'0.30'
p3898
aS'1040.17'
p3899
aS'8071'
p3900
aS'10.12'
p3901
aS'742'
p3902
asS'KLP AksjeGlobal Indeks V'
p3903
(lp3904
S'NOK'
p3905
aS'7.2783'
p3906
aS'1054.38'
p3907
aS'7674'
p3908
aS'0.00'
p3909
aS'1080.22'
p3910
aS'7862'
p3911
aS'2.45'
p3912
aS'188'
p3913
asS'KLP AksjeFremvoksende Markeder Indeks II'
p3914
(lp3915
S'NOK'
p3916
aS'3.5857'
p3917
aS'1514.35'
p3918
aS'5430'
p3919
aS'0.21'
p3920
aS'1537.72'
p3921
aS'5514'
p3922
aS'1.54'
p3923
aS'84'
p3924
asS'Global X MSCI SuperDividend EAFE ETF'
p3925
(lp3926
S'USD'
p3927
aS'153'
p3928
aS'15.83'
p3929
aS'0.00'
p3930
aS'16.01'
p3931
aS'2450'
p3932
aS'20422'
p3933
aS'-0.73'
p3934
aS'-149.84'
p3935
asS'Alfred Berg Gambak'
p3936
(lp3937
S'NOK'
p3938
aS'0.2646'
p3939
aS'23370.46'
p3940
aS'6184'
p3941
aS'0.41'
p3942
aS'26341.37'
p3943
aS'6970'
p3944
aS'12.71'
p3945
aS'786'
p3946
asS'Delphi Nordic'
p3947
(lp3948
S'NOK'
p3949
aS'0.1813'
p3950
aS'29637.71'
p3951
aS'5373'
p3952
aS'0.05'
p3953
aS'30512.96'
p3954
aS'5532'
p3955
aS'2.95'
p3956
aS'159'
p3957
asS'date'
p3958
(lp3959
F1485357032.967869
aS'25.01.17'
p3960
asS'Alfred Berg Nordisk Eiendom C'
p3961
(lp3962
S'NOK'
p3963
aS'31.5399'
p3964
aS'109.45'
p3965
aS'3452'
p3966
aS'-0.18'
p3967
aS'106.61'
p3968
aS'3362'
p3969
aS'-2.59'
p3970
aS'-89'
p3971
asS'SKAGEN Focus A'
p3972
(lp3973
S'NOK'
p3974
aS'64.8551'
p3975
aS'98.45'
p3976
aS'6385'
p3977
aS'-1.46'
p3978
aS'105.89'
p3979
aS'6867'
p3980
aS'7.55'
p3981
aS'482'
p3982
asS'Global X SuperIncome Preferred ETF'
p3983
(lp3984
S'USD'
p3985
aS'187'
p3986
aS'13.43'
p3987
aS'-0.15'
p3988
aS'13.00'
p3989
aS'2431'
p3990
aS'20267'
p3991
aS'-1.00'
p3992
aS'-204'
p3993
asa(dp3994
S'KLP AksjeGlobal Indeks V'
p3995
(lp3996
S'NOK'
p3997
aS'7.2783'
p3998
aS'1054.38'
p3999
aS'7674'
p4000
aS'0.80'
p4001
aS'1088.87'
p4002
aS'7925'
p4003
aS'3.27'
p4004
aS'251'
p4005
asS'KLP AksjeFremvoksende Markeder Indeks II'
p4006
(lp4007
S'NOK'
p4008
aS'3.5857'
p4009
aS'1514.35'
p4010
aS'5430'
p4011
aS'0.36'
p4012
aS'1543.19'
p4013
aS'5533'
p4014
aS'1.90'
p4015
aS'103'
p4016
asS'Global X MSCI SuperDividend EAFE ETF'
p4017
(lp4018
S'USD'
p4019
aS'153'
p4020
aS'15.83'
p4021
aS'0.00'
p4022
aS'16.28'
p4023
aS'2491'
p4024
aS'20785'
p4025
aS'1.04'
p4026
aS'213.16'
p4027
asS'Alfred Berg Gambak'
p4028
(lp4029
S'NOK'
p4030
aS'0.2646'
p4031
aS'23370.46'
p4032
aS'6184'
p4033
aS'0.93'
p4034
aS'26585.55'
p4035
aS'7035'
p4036
aS'13.76'
p4037
aS'851'
p4038
asS'Delphi Nordic'
p4039
(lp4040
S'NOK'
p4041
aS'0.1813'
p4042
aS'29637.71'
p4043
aS'5373'
p4044
aS'1.19'
p4045
aS'30874.56'
p4046
aS'5598'
p4047
aS'4.17'
p4048
aS'224'
p4049
asS'Global X SuperIncome Preferred ETF'
p4050
(lp4051
S'USD'
p4052
aS'187'
p4053
aS'13.43'
p4054
aS'0.00'
p4055
aS'12.98'
p4056
aS'2427'
p4057
aS'20254'
p4058
aS'-1.06'
p4059
aS'-217'
p4060
asS'date'
p4061
(lp4062
F1485444191.707371
aS'26.01.17'
p4063
asS'Alfred Berg Nordisk Eiendom C'
p4064
(lp4065
S'NOK'
p4066
aS'31.5399'
p4067
aS'109.45'
p4068
aS'3452'
p4069
aS'-0.29'
p4070
aS'106.30'
p4071
aS'3353'
p4072
aS'-2.87'
p4073
aS'-99'
p4074
asS'SKAGEN Focus A'
p4075
(lp4076
S'NOK'
p4077
aS'64.8551'
p4078
aS'98.45'
p4079
aS'6385'
p4080
aS'0.92'
p4081
aS'106.86'
p4082
aS'6931'
p4083
aS'8.54'
p4084
aS'545'
p4085
asS'DNB Teknologi'
p4086
(lp4087
S'NOK'
p4088
aS'7.7594'
p4089
aS'944.59'
p4090
aS'7329'
p4091
aS'1.04'
p4092
aS'1050.98'
p4093
aS'8155'
p4094
aS'11.26'
p4095
aS'826'
p4096
asa(dp4097
S'DNB Teknologi'
p4098
(lp4099
S'NOK'
p4100
aS'7.7594'
p4101
aS'944.59'
p4102
aS'7329'
p4103
aS'0.92'
p4104
aS'1060.60'
p4105
aS'8230'
p4106
aS'12.28'
p4107
aS'900'
p4108
asS'KLP AksjeGlobal Indeks V'
p4109
(lp4110
S'NOK'
p4111
aS'7.2783'
p4112
aS'1054.38'
p4113
aS'7674'
p4114
aS'0.34'
p4115
aS'1092.59'
p4116
aS'7952'
p4117
aS'3.62'
p4118
aS'278'
p4119
asS'KLP AksjeFremvoksende Markeder Indeks II'
p4120
(lp4121
S'NOK'
p4122
aS'3.5857'
p4123
aS'1514.35'
p4124
aS'5430'
p4125
aS'0.99'
p4126
aS'1558.47'
p4127
aS'5588'
p4128
aS'2.91'
p4129
aS'158'
p4130
asS'Global X MSCI SuperDividend EAFE ETF'
p4131
(lp4132
S'USD'
p4133
aS'153'
p4134
aS'15.83'
p4135
aS'-0.61'
p4136
aS'16.18'
p4137
aS'2476'
p4138
aS'20651'
p4139
aS'0.39'
p4140
aS'79.16'
p4141
asS'Alfred Berg Gambak'
p4142
(lp4143
S'NOK'
p4144
aS'0.2646'
p4145
aS'23370.46'
p4146
aS'6184'
p4147
aS'0.25'
p4148
aS'26651.47'
p4149
aS'7052'
p4150
aS'14.04'
p4151
aS'868'
p4152
asS'Delphi Nordic'
p4153
(lp4154
S'NOK'
p4155
aS'0.1813'
p4156
aS'29637.71'
p4157
aS'5373'
p4158
aS'0.10'
p4159
aS'31055.17'
p4160
aS'5630'
p4161
aS'4.78'
p4162
aS'257'
p4163
asS'date'
p4164
(lp4165
F1485537785.198885
aS'27.01.17'
p4166
asS'Alfred Berg Nordisk Eiendom C'
p4167
(lp4168
S'NOK'
p4169
aS'31.5399'
p4170
aS'109.45'
p4171
aS'3452'
p4172
aS'-0.38'
p4173
aS'106.58'
p4174
aS'3362'
p4175
aS'-2.62'
p4176
aS'-90'
p4177
asS'SKAGEN Focus A'
p4178
(lp4179
S'NOK'
p4180
aS'64.8551'
p4181
aS'98.45'
p4182
aS'6385'
p4183
aS'1.11'
p4184
aS'108.04'
p4185
aS'7007'
p4186
aS'9.74'
p4187
aS'622'
p4188
asS'Global X SuperIncome Preferred ETF'
p4189
(lp4190
S'USD'
p4191
aS'187'
p4192
aS'13.43'
p4193
aS'-0.08'
p4194
aS'13.04'
p4195
aS'2438'
p4196
aS'20342'
p4197
aS'-0.63'
p4198
aS'-129'
p4199
asa(dp4200
S'KLP AksjeGlobal Indeks V'
p4201
(lp4202
S'NOK'
p4203
aS'7.2783'
p4204
aS'1054.38'
p4205
aS'7674'
p4206
aS'-0.43'
p4207
aS'1087.86'
p4208
aS'7918'
p4209
aS'3.18'
p4210
aS'244'
p4211
asS'KLP AksjeFremvoksende Markeder Indeks II'
p4212
(lp4213
S'NOK'
p4214
aS'3.5857'
p4215
aS'1514.35'
p4216
aS'5430'
p4217
aS'-0.51'
p4218
aS'1550.54'
p4219
aS'5560'
p4220
aS'2.39'
p4221
aS'130'
p4222
asS'Global X MSCI SuperDividend EAFE ETF'
p4223
(lp4224
S'USD'
p4225
aS'153'
p4226
aS'15.83'
p4227
aS'0.00'
p4228
aS'16.18'
p4229
aS'2476'
p4230
aS'20589'
p4231
aS'0.08'
p4232
aS'17.16'
p4233
asS'Alfred Berg Gambak'
p4234
(lp4235
S'NOK'
p4236
aS'0.2646'
p4237
aS'23370.46'
p4238
aS'6184'
p4239
aS'-0.22'
p4240
aS'26592.59'
p4241
aS'7036'
p4242
aS'13.79'
p4243
aS'853'
p4244
asS'Delphi Nordic'
p4245
(lp4246
S'NOK'
p4247
aS'0.1813'
p4248
aS'29637.71'
p4249
aS'5373'
p4250
aS'-0.86'
p4251
aS'30787.05'
p4252
aS'5582'
p4253
aS'3.88'
p4254
aS'208'
p4255
asS'Global X SuperIncome Preferred ETF'
p4256
(lp4257
S'USD'
p4258
aS'187'
p4259
aS'13.43'
p4260
aS'-0.31'
p4261
aS'13.00'
p4262
aS'2431'
p4263
aS'20219'
p4264
aS'-1.23'
p4265
aS'-253'
p4266
asS'date'
p4267
(lp4268
F1485803573.1528211
aS'30.01.17'
p4269
asS'Alfred Berg Nordisk Eiendom C'
p4270
(lp4271
S'NOK'
p4272
aS'31.5399'
p4273
aS'109.45'
p4274
aS'3452'
p4275
aS'-0.28'
p4276
aS'106.28'
p4277
aS'3352'
p4278
aS'-2.89'
p4279
aS'-100'
p4280
asS'SKAGEN Focus A'
p4281
(lp4282
S'NOK'
p4283
aS'64.8551'
p4284
aS'98.45'
p4285
aS'6385'
p4286
aS'-0.61'
p4287
aS'106.58'
p4288
aS'6912'
p4289
aS'8.26'
p4290
aS'527'
p4291
asS'DNB Teknologi'
p4292
(lp4293
S'NOK'
p4294
aS'7.7594'
p4295
aS'944.59'
p4296
aS'7329'
p4297
aS'-0.59'
p4298
aS'1054.39'
p4299
aS'8181'
p4300
aS'11.62'
p4301
aS'852'
p4302
asa(dp4303
S'DNB Teknologi'
p4304
(lp4305
S'NOK'
p4306
aS'8.2022'
p4307
aS'949.67'
p4308
aS'7789'
p4309
aS'-0.93'
p4310
aS'1029.15'
p4311
aS'8441'
p4312
aS'8.37'
p4313
aS'652'
p4314
asS'KLP AksjeGlobal Indeks V'
p4315
(lp4316
S'NOK'
p4317
aS'7.6671'
p4318
aS'1055.69'
p4319
aS'8094'
p4320
aS'-1.03'
p4321
aS'1069.15'
p4322
aS'8197'
p4323
aS'1.28'
p4324
aS'103'
p4325
asS'KLP AksjeFremvoksende Markeder Indeks II'
p4326
(lp4327
S'NOK'
p4328
aS'3.5857'
p4329
aS'1514.35'
p4330
aS'5430'
p4331
aS'-1.45'
p4332
aS'1522.71'
p4333
aS'5460'
p4334
aS'0.55'
p4335
aS'30'
p4336
asS'Global X MSCI SuperDividend EAFE ETF'
p4337
(lp4338
S'USD'
p4339
aS'153'
p4340
aS'15.83'
p4341
aS'0.00'
p4342
aS'16.09'
p4343
aS'2462'
p4344
aS'20314'
p4345
aS'-1.25'
p4346
aS'-257.84'
p4347
asS'Alfred Berg Gambak'
p4348
(lp4349
S'NOK'
p4350
aS'0.2646'
p4351
aS'23370.46'
p4352
aS'6184'
p4353
aS'-0.97'
p4354
aS'26020.79'
p4355
aS'6885'
p4356
aS'11.34'
p4357
aS'701'
p4358
asS'Delphi Nordic'
p4359
(lp4360
S'NOK'
p4361
aS'0.1871'
p4362
aS'29681.01'
p4363
aS'5553'
p4364
aS'-0.04'
p4365
aS'30774.58'
p4366
aS'5758'
p4367
aS'3.68'
p4368
aS'205'
p4369
asS'date'
p4370
(lp4371
F1485964182.0560391
aS'01.02.17'
p4372
asS'Alfred Berg Nordisk Eiendom C'
p4373
(lp4374
S'NOK'
p4375
aS'31.5399'
p4376
aS'109.45'
p4377
aS'3452'
p4378
aS'0.28'
p4379
aS'106.58'
p4380
aS'3362'
p4381
aS'-2.62'
p4382
aS'-90'
p4383
asS'SKAGEN Focus A'
p4384
(lp4385
S'NOK'
p4386
aS'65.7933'
p4387
aS'98.57'
p4388
aS'6485'
p4389
aS'-0.58'
p4390
aS'105.97'
p4391
aS'6972'
p4392
aS'7.50'
p4393
aS'487'
p4394
asS'Global X SuperIncome Preferred ETF'
p4395
(lp4396
S'USD'
p4397
aS'187'
p4398
aS'13.43'
p4399
aS'-0.46'
p4400
aS'12.97'
p4401
aS'2425'
p4402
aS'20014'
p4403
aS'-2.24'
p4404
aS'-458'
p4405
asa(dp4406
S'KLP AksjeGlobal Indeks V'
p4407
(lp4408
S'NOK'
p4409
aS'7.6671'
p4410
aS'1055.69'
p4411
aS'8094'
p4412
aS'-0.39'
p4413
aS'1069.12'
p4414
aS'8197'
p4415
aS'1.27'
p4416
aS'103'
p4417
asS'KLP AksjeFremvoksende Markeder Indeks II'
p4418
(lp4419
S'NOK'
p4420
aS'3.7696'
p4421
aS'1514.75'
p4422
aS'5710'
p4423
aS'-0.24'
p4424
aS'1529.82'
p4425
aS'5767'
p4426
aS'0.99'
p4427
aS'57'
p4428
asS'Global X MSCI SuperDividend EAFE ETF'
p4429
(lp4430
S'USD'
p4431
aS'153'
p4432
aS'15.83'
p4433
aS'0.00'
p4434
aS'16.09'
p4435
aS'2462'
p4436
aS'20230'
p4437
aS'-1.66'
p4438
aS'-341.84'
p4439
asS'Alfred Berg Gambak'
p4440
(lp4441
S'NOK'
p4442
aS'0.2821'
p4443
aS'23551.30'
p4444
aS'6644'
p4445
aS'-0.97'
p4446
aS'26136.56'
p4447
aS'7373'
p4448
aS'10.98'
p4449
aS'729'
p4450
asS'Delphi Nordic'
p4451
(lp4452
S'NOK'
p4453
aS'0.1871'
p4454
aS'29681.01'
p4455
aS'5553'
p4456
aS'0.52'
p4457
aS'31232.01'
p4458
aS'5844'
p4459
aS'5.23'
p4460
aS'290'
p4461
asS'Global X SuperIncome Preferred ETF'
p4462
(lp4463
S'USD'
p4464
aS'187'
p4465
aS'13.43'
p4466
aS'0.00'
p4467
aS'13.05'
p4468
aS'2440'
p4469
aS'20054'
p4470
aS'-2.04'
p4471
aS'-418'
p4472
asS'date'
p4473
(lp4474
F1486133631.4758091
aS'03.02.17'
p4475
asS'Alfred Berg Nordisk Eiendom C'
p4476
(lp4477
S'NOK'
p4478
aS'32.4782'
p4479
aS'109.36'
p4480
aS'3552'
p4481
aS'0.32'
p4482
aS'108.16'
p4483
aS'3513'
p4484
aS'-1.10'
p4485
aS'-39'
p4486
asS'SKAGEN Focus A'
p4487
(lp4488
S'NOK'
p4489
aS'65.7933'
p4490
aS'98.57'
p4491
aS'6485'
p4492
aS'-0.14'
p4493
aS'106.44'
p4494
aS'7003'
p4495
aS'7.99'
p4496
aS'518'
p4497
asS'DNB Teknologi'
p4498
(lp4499
S'NOK'
p4500
aS'8.2022'
p4501
aS'949.68'
p4502
aS'7789'
p4503
aS'-0.01'
p4504
aS'1034.20'
p4505
aS'8483'
p4506
aS'8.90'
p4507
aS'693'
p4508
asa(dp4509
S'DNB Teknologi'
p4510
(lp4511
S'NOK'
p4512
aS'8.2022'
p4513
aS'949.68'
p4514
aS'7789'
p4515
aS'0.33'
p4516
aS'1037.57'
p4517
aS'8510'
p4518
aS'9.26'
p4519
aS'721'
p4520
asS'KLP AksjeGlobal Indeks V'
p4521
(lp4522
S'NOK'
p4523
aS'7.6671'
p4524
aS'1055.69'
p4525
aS'8094'
p4526
aS'0.42'
p4527
aS'1073.61'
p4528
aS'8231'
p4529
aS'1.70'
p4530
aS'137'
p4531
asS'KLP AksjeFremvoksende Markeder Indeks II'
p4532
(lp4533
S'NOK'
p4534
aS'3.7696'
p4535
aS'1514.75'
p4536
aS'5710'
p4537
aS'0.22'
p4538
aS'1533.21'
p4539
aS'5780'
p4540
aS'1.22'
p4541
aS'70'
p4542
asS'Global X MSCI SuperDividend EAFE ETF'
p4543
(lp4544
S'USD'
p4545
aS'153'
p4546
aS'15.83'
p4547
aS'0.00'
p4548
aS'16.05'
p4549
aS'2456'
p4550
aS'20280'
p4551
aS'-1.42'
p4552
aS'-291.84'
p4553
asS'Alfred Berg Gambak'
p4554
(lp4555
S'NOK'
p4556
aS'0.2821'
p4557
aS'23551.30'
p4558
aS'6644'
p4559
aS'0.65'
p4560
aS'26306.12'
p4561
aS'7421'
p4562
aS'11.70'
p4563
aS'777'
p4564
asS'Delphi Nordic'
p4565
(lp4566
S'NOK'
p4567
aS'0.1871'
p4568
aS'29681.01'
p4569
aS'5553'
p4570
aS'-0.12'
p4571
aS'31311.72'
p4572
aS'5858'
p4573
aS'5.49'
p4574
aS'305'
p4575
asS'date'
p4576
(lp4577
F1486404046.6666441
aS'06.02.17'
p4578
asS'Alfred Berg Nordisk Eiendom C'
p4579
(lp4580
S'NOK'
p4581
aS'32.4782'
p4582
aS'109.36'
p4583
aS'3552'
p4584
aS'0.04'
p4585
aS'108.20'
p4586
aS'3514'
p4587
aS'-1.06'
p4588
aS'-38'
p4589
asS'SKAGEN Focus A'
p4590
(lp4591
S'NOK'
p4592
aS'65.7933'
p4593
aS'98.57'
p4594
aS'6485'
p4595
aS'0.35'
p4596
aS'106.81'
p4597
aS'7027'
p4598
aS'8.36'
p4599
aS'542'
p4600
asS'Global X SuperIncome Preferred ETF'
p4601
(lp4602
S'USD'
p4603
aS'187'
p4604
aS'13.43'
p4605
aS'0.00'
p4606
aS'13.11'
p4607
aS'2452'
p4608
aS'20247'
p4609
aS'-1.10'
p4610
aS'-225'
p4611
asa(dp4612
S'KLP AksjeGlobal Indeks V'
p4613
(lp4614
S'NOK'
p4615
aS'7.6671'
p4616
aS'1055.69'
p4617
aS'8094'
p4618
aS'0.60'
p4619
aS'1082.79'
p4620
aS'8302'
p4621
aS'2.57'
p4622
aS'208'
p4623
asS'KLP AksjeFremvoksende Markeder Indeks II'
p4624
(lp4625
S'NOK'
p4626
aS'3.7696'
p4627
aS'1514.75'
p4628
aS'5710'
p4629
aS'0.33'
p4630
aS'1556.11'
p4631
aS'5866'
p4632
aS'2.73'
p4633
aS'156'
p4634
asS'Global X MSCI SuperDividend EAFE ETF'
p4635
(lp4636
S'USD'
p4637
aS'153'
p4638
aS'15.83'
p4639
aS'0.00'
p4640
aS'15.84'
p4641
aS'2424'
p4642
aS'20136'
p4643
aS'-2.12'
p4644
aS'-435.84'
p4645
asS'Alfred Berg Gambak'
p4646
(lp4647
S'NOK'
p4648
aS'0.2821'
p4649
aS'23551.30'
p4650
aS'6644'
p4651
aS'0.92'
p4652
aS'26613.97'
p4653
aS'7508'
p4654
aS'13.00'
p4655
aS'864'
p4656
asS'Delphi Nordic'
p4657
(lp4658
S'NOK'
p4659
aS'0.1871'
p4660
aS'29681.01'
p4661
aS'5553'
p4662
aS'0.04'
p4663
aS'31324.45'
p4664
aS'5861'
p4665
aS'5.54'
p4666
aS'307'
p4667
asS'Global X SuperIncome Preferred ETF'
p4668
(lp4669
S'USD'
p4670
aS'187'
p4671
aS'13.43'
p4672
aS'0.23'
p4673
aS'13.15'
p4674
aS'2459'
p4675
aS'20432'
p4676
aS'-0.20'
p4677
aS'-40'
p4678
asS'date'
p4679
(lp4680
F1486574230.393631
aS'08.02.17'
p4681
asS'Alfred Berg Nordisk Eiendom C'
p4682
(lp4683
S'NOK'
p4684
aS'32.4782'
p4685
aS'109.36'
p4686
aS'3552'
p4687
aS'1.51'
p4688
aS'111.13'
p4689
aS'3609'
p4690
aS'1.62'
p4691
aS'57'
p4692
asS'SKAGEN Focus A'
p4693
(lp4694
S'NOK'
p4695
aS'65.7933'
p4696
aS'98.57'
p4697
aS'6485'
p4698
aS'0.63'
p4699
aS'107.66'
p4700
aS'7083'
p4701
aS'9.22'
p4702
aS'598'
p4703
asS'DNB Teknologi'
p4704
(lp4705
S'NOK'
p4706
aS'8.2022'
p4707
aS'949.68'
p4708
aS'7789'
p4709
aS'0.61'
p4710
aS'1044.77'
p4711
aS'8569'
p4712
aS'10.01'
p4713
aS'780'
p4714
asa(dp4715
S'DNB Teknologi'
p4716
(lp4717
S'NOK'
p4718
aS'8.2022'
p4719
aS'949.68'
p4720
aS'7789'
p4721
aS'1.00'
p4722
aS'1058.71'
p4723
aS'8684'
p4724
aS'11.48'
p4725
aS'894'
p4726
asS'KLP AksjeGlobal Indeks V'
p4727
(lp4728
S'NOK'
p4729
aS'7.6671'
p4730
aS'1055.69'
p4731
aS'8094'
p4732
aS'0.74'
p4733
aS'1092.08'
p4734
aS'8373'
p4735
aS'3.45'
p4736
aS'279'
p4737
asS'KLP AksjeFremvoksende Markeder Indeks II'
p4738
(lp4739
S'NOK'
p4740
aS'3.7696'
p4741
aS'1514.75'
p4742
aS'5710'
p4743
aS'0.89'
p4744
aS'1570.26'
p4745
aS'5919'
p4746
aS'3.66'
p4747
aS'209'
p4748
asS'Global X MSCI SuperDividend EAFE ETF'
p4749
(lp4750
S'USD'
p4751
aS'153'
p4752
aS'15.83'
p4753
aS'0.00'
p4754
aS'15.84'
p4755
aS'2424'
p4756
aS'20325'
p4757
aS'-1.20'
p4758
aS'-246.84'
p4759
asS'Alfred Berg Gambak'
p4760
(lp4761
S'NOK'
p4762
aS'0.2821'
p4763
aS'23551.30'
p4764
aS'6644'
p4765
aS'-0.28'
p4766
aS'26438.70'
p4767
aS'7458'
p4768
aS'12.26'
p4769
aS'815'
p4770
asS'Delphi Nordic'
p4771
(lp4772
S'NOK'
p4773
aS'0.1871'
p4774
aS'29681.01'
p4775
aS'5553'
p4776
aS'0.53'
p4777
aS'31363.80'
p4778
aS'5868'
p4779
aS'5.67'
p4780
aS'315'
p4781
asS'date'
p4782
(lp4783
F1486738510.4737689
aS'10.02.17'
p4784
asS'Alfred Berg Nordisk Eiendom C'
p4785
(lp4786
S'NOK'
p4787
aS'32.4782'
p4788
aS'109.36'
p4789
aS'3552'
p4790
aS'-0.58'
p4791
aS'110.49'
p4792
aS'3589'
p4793
aS'1.03'
p4794
aS'37'
p4795
asS'SKAGEN Focus A'
p4796
(lp4797
S'NOK'
p4798
aS'65.7933'
p4799
aS'98.57'
p4800
aS'6485'
p4801
aS'0.50'
p4802
aS'107.66'
p4803
aS'7083'
p4804
aS'9.22'
p4805
aS'598'
p4806
asS'Global X SuperIncome Preferred ETF'
p4807
(lp4808
S'USD'
p4809
aS'187'
p4810
aS'13.43'
p4811
aS'0.08'
p4812
aS'13.19'
p4813
aS'2467'
p4814
aS'20686'
p4815
aS'1.05'
p4816
aS'214'
p4817
asa(dp4818
S'KLP AksjeGlobal Indeks V'
p4819
(lp4820
S'NOK'
p4821
aS'7.6671'
p4822
aS'1055.69'
p4823
aS'8094'
p4824
aS'0.42'
p4825
aS'1108.18'
p4826
aS'8497'
p4827
aS'4.97'
p4828
aS'402'
p4829
asS'KLP AksjeFremvoksende Markeder Indeks II'
p4830
(lp4831
S'NOK'
p4832
aS'3.7696'
p4833
aS'1514.75'
p4834
aS'5710'
p4835
aS'0.50'
p4836
aS'1595.76'
p4837
aS'6015'
p4838
aS'5.35'
p4839
aS'305'
p4840
asS'yield'
p4841
(dp4842
S'Global X MSCI SuperDividend EAFE ETF'
p4843
F61.43
sS'Global X SuperIncome Preferred ETF'
p4844
F96.400000000000006
ssS'Global X MSCI SuperDividend EAFE ETF'
p4845
(lp4846
S'USD'
p4847
aS'153'
p4848
aS'15.83'
p4849
aS'0.00'
p4850
aS'16.12'
p4851
aS'2466'
p4852
aS'20628'
p4853
aS'0.27'
p4854
aS'56.16'
p4855
asS'Alfred Berg Gambak'
p4856
(lp4857
S'NOK'
p4858
aS'0.2821'
p4859
aS'23551.30'
p4860
aS'6644'
p4861
aS'0.84'
p4862
aS'26690.36'
p4863
aS'7529'
p4864
aS'13.33'
p4865
aS'886'
p4866
asS'Delphi Nordic'
p4867
(lp4868
S'NOK'
p4869
aS'0.1871'
p4870
aS'29681.01'
p4871
aS'5553'
p4872
aS'0.49'
p4873
aS'31957.39'
p4874
aS'5979'
p4875
aS'7.67'
p4876
aS'426'
p4877
asS'Global X SuperIncome Preferred ETF'
p4878
(lp4879
S'USD'
p4880
aS'187'
p4881
aS'13.43'
p4882
aS'0.00'
p4883
aS'13.24'
p4884
aS'2476'
p4885
aS'20707'
p4886
aS'1.15'
p4887
aS'236'
p4888
asS'date'
p4889
(lp4890
F1487080355.5392611
aS'14.02.17'
p4891
asS'Alfred Berg Nordisk Eiendom C'
p4892
(lp4893
S'NOK'
p4894
aS'32.4782'
p4895
aS'109.36'
p4896
aS'3552'
p4897
aS'0.19'
p4898
aS'110.86'
p4899
aS'3601'
p4900
aS'1.37'
p4901
aS'49'
p4902
asS'SKAGEN Focus A'
p4903
(lp4904
S'NOK'
p4905
aS'65.7933'
p4906
aS'98.57'
p4907
aS'6485'
p4908
aS'1.10'
p4909
aS'109.22'
p4910
aS'7186'
p4911
aS'10.81'
p4912
aS'701'
p4913
asS'DNB Teknologi'
p4914
(lp4915
S'NOK'
p4916
aS'8.2022'
p4917
aS'949.68'
p4918
aS'7789'
p4919
aS'0.56'
p4920
aS'1071.70'
p4921
aS'8790'
p4922
aS'12.85'
p4923
aS'1001'
p4924
asa(dp4925
S'KLP AksjeGlobal Indeks V'
p4926
(lp4927
S'NOK'
p4928
aS'7.6671'
p4929
aS'1055.69'
p4930
aS'8094'
p4931
aS'0.38'
p4932
aS'1112.42'
p4933
aS'8529'
p4934
aS'5.37'
p4935
aS'435'
p4936
asS'KLP AksjeFremvoksende Markeder Indeks II'
p4937
(lp4938
S'NOK'
p4939
aS'3.7696'
p4940
aS'1514.75'
p4941
aS'5710'
p4942
aS'0.19'
p4943
aS'1598.78'
p4944
aS'6027'
p4945
aS'5.55'
p4946
aS'317'
p4947
asS'Global X MSCI SuperDividend EAFE ETF'
p4948
(lp4949
S'USD'
p4950
aS'153'
p4951
aS'15.83'
p4952
aS'0.00'
p4953
aS'16.12'
p4954
aS'2466'
p4955
aS'20578'
p4956
aS'0.03'
p4957
aS'6.16'
p4958
asS'Alfred Berg Gambak'
p4959
(lp4960
S'NOK'
p4961
aS'0.2821'
p4962
aS'23551.30'
p4963
aS'6644'
p4964
aS'0.14'
p4965
aS'26727.53'
p4966
aS'7540'
p4967
aS'13.49'
p4968
aS'896'
p4969
asS'Delphi Nordic'
p4970
(lp4971
S'NOK'
p4972
aS'0.1871'
p4973
aS'29681.01'
p4974
aS'5553'
p4975
aS'0.08'
p4976
aS'31982.12'
p4977
aS'5984'
p4978
aS'7.75'
p4979
aS'431'
p4980
asS'Global X SuperIncome Preferred ETF'
p4981
(lp4982
S'USD'
p4983
aS'187'
p4984
aS'13.43'
p4985
aS'0.15'
p4986
aS'13.24'
p4987
aS'2476'
p4988
aS'20658'
p4989
aS'0.91'
p4990
aS'186'
p4991
asS'date'
p4992
(lp4993
F1487178080.4284749
aS'15.02.17'
p4994
asS'Alfred Berg Nordisk Eiendom C'
p4995
(lp4996
S'NOK'
p4997
aS'32.4782'
p4998
aS'109.36'
p4999
aS'3552'
p5000
aS'0.22'
p5001
aS'111.10'
p5002
aS'3608'
p5003
aS'1.59'
p5004
aS'56'
p5005
asS'SKAGEN Focus A'
p5006
(lp5007
S'NOK'
p5008
aS'65.7933'
p5009
aS'98.57'
p5010
aS'6485'
p5011
aS'0.04'
p5012
aS'109.27'
p5013
aS'7189'
p5014
aS'10.85'
p5015
aS'704'
p5016
asS'DNB Teknologi'
p5017
(lp5018
S'NOK'
p5019
aS'8.2022'
p5020
aS'949.68'
p5021
aS'7789'
p5022
aS'0.49'
p5023
aS'1077.01'
p5024
aS'8834'
p5025
aS'13.41'
p5026
aS'1044'
p5027
asa(dp5028
S'DNB Teknologi'
p5029
(lp5030
S'NOK'
p5031
aS'8.2022'
p5032
aS'949.68'
p5033
aS'7789'
p5034
aS'-0.20'
p5035
aS'1074.84'
p5036
aS'8816'
p5037
aS'13.18'
p5038
aS'1027'
p5039
asS'KLP AksjeGlobal Indeks V'
p5040
(lp5041
S'NOK'
p5042
aS'7.6671'
p5043
aS'1055.69'
p5044
aS'8094'
p5045
aS'-0.07'
p5046
aS'1111.64'
p5047
aS'8523'
p5048
aS'5.30'
p5049
aS'429'
p5050
asS'KLP AksjeFremvoksende Markeder Indeks II'
p5051
(lp5052
S'NOK'
p5053
aS'3.7696'
p5054
aS'1514.75'
p5055
aS'5710'
p5056
aS'0.19'
p5057
aS'1601.75'
p5058
aS'6038'
p5059
aS'5.74'
p5060
aS'328'
p5061
asS'Global X MSCI SuperDividend EAFE ETF'
p5062
(lp5063
S'USD'
p5064
aS'153'
p5065
aS'15.83'
p5066
aS'0.00'
p5067
aS'16.18'
p5068
aS'2476'
p5069
aS'20517'
p5070
aS'-0.27'
p5071
aS'-54.84'
p5072
asS'Alfred Berg Gambak'
p5073
(lp5074
S'NOK'
p5075
aS'0.2821'
p5076
aS'23551.30'
p5077
aS'6644'
p5078
aS'-0.95'
p5079
aS'26473.09'
p5080
aS'7468'
p5081
aS'12.41'
p5082
aS'824'
p5083
asS'Delphi Nordic'
p5084
(lp5085
S'NOK'
p5086
aS'0.1871'
p5087
aS'29681.01'
p5088
aS'5553'
p5089
aS'-0.16'
p5090
aS'31921.89'
p5091
aS'5973'
p5092
aS'7.55'
p5093
aS'419'
p5094
asS'date'
p5095
(lp5096
F1487272634.3287759
aS'16.02.17'
p5097
asS'Alfred Berg Nordisk Eiendom C'
p5098
(lp5099
S'NOK'
p5100
aS'32.4782'
p5101
aS'109.36'
p5102
aS'3552'
p5103
aS'-0.01'
p5104
aS'111.68'
p5105
aS'3627'
p5106
aS'2.12'
p5107
aS'75'
p5108
asS'SKAGEN Focus A'
p5109
(lp5110
S'NOK'
p5111
aS'65.7933'
p5112
aS'98.57'
p5113
aS'6485'
p5114
aS'-0.04'
p5115
aS'109.23'
p5116
aS'7186'
p5117
aS'10.81'
p5118
aS'701'
p5119
asS'Global X SuperIncome Preferred ETF'
p5120
(lp5121
S'USD'
p5122
aS'187'
p5123
aS'13.43'
p5124
aS'-0.15'
p5125
aS'13.21'
p5126
aS'2470'
p5127
aS'20473'
p5128
aS'0.01'
p5129
aS'1'
asa(dp5130
S'KLP AksjeGlobal Indeks V'
p5131
(lp5132
S'NOK'
p5133
aS'7.6671'
p5134
aS'1055.69'
p5135
aS'8094'
p5136
aS'-0.46'
p5137
aS'1106.52'
p5138
aS'8484'
p5139
aS'4.82'
p5140
aS'390'
p5141
asS'KLP AksjeFremvoksende Markeder Indeks II'
p5142
(lp5143
S'NOK'
p5144
aS'3.7696'
p5145
aS'1514.75'
p5146
aS'5710'
p5147
aS'-0.21'
p5148
aS'1598.33'
p5149
aS'6025'
p5150
aS'5.52'
p5151
aS'315'
p5152
asS'Global X MSCI SuperDividend EAFE ETF'
p5153
(lp5154
S'USD'
p5155
aS'153'
p5156
aS'15.83'
p5157
aS'0.00'
p5158
aS'16.07'
p5159
aS'2459'
p5160
aS'20521'
p5161
aS'-0.25'
p5162
aS'-50.84'
p5163
asS'Alfred Berg Gambak'
p5164
(lp5165
S'NOK'
p5166
aS'0.2821'
p5167
aS'23551.30'
p5168
aS'6644'
p5169
aS'-0.24'
p5170
aS'26410.67'
p5171
aS'7450'
p5172
aS'12.14'
p5173
aS'807'
p5174
asS'Delphi Nordic'
p5175
(lp5176
S'NOK'
p5177
aS'0.1871'
p5178
aS'29681.01'
p5179
aS'5553'
p5180
aS'-0.49'
p5181
aS'31764.29'
p5182
aS'5943'
p5183
aS'7.02'
p5184
aS'390'
p5185
asS'Global X SuperIncome Preferred ETF'
p5186
(lp5187
S'USD'
p5188
aS'187'
p5189
aS'13.43'
p5190
aS'0.08'
p5191
aS'13.21'
p5192
aS'2470'
p5193
aS'20617'
p5194
aS'0.71'
p5195
aS'146'
p5196
asS'date'
p5197
(lp5198
F1487463155.170516
aS'19.02.17'
p5199
asS'Alfred Berg Nordisk Eiendom C'
p5200
(lp5201
S'NOK'
p5202
aS'32.4782'
p5203
aS'109.36'
p5204
aS'3552'
p5205
aS'0.16'
p5206
aS'111.86'
p5207
aS'3633'
p5208
aS'2.28'
p5209
aS'81'
p5210
asS'SKAGEN Focus A'
p5211
(lp5212
S'NOK'
p5213
aS'65.7933'
p5214
aS'98.57'
p5215
aS'6485'
p5216
aS'-0.75'
p5217
aS'108.47'
p5218
aS'7136'
p5219
aS'10.04'
p5220
aS'651'
p5221
asS'DNB Teknologi'
p5222
(lp5223
S'NOK'
p5224
aS'8.2022'
p5225
aS'949.68'
p5226
aS'7789'
p5227
aS'0.17'
p5228
aS'1076.70'
p5229
aS'8831'
p5230
aS'13.38'
p5231
aS'1042'
p5232
asa(dp5233
S'DNB Teknologi'
p5234
(lp5235
S'NOK'
p5236
aS'8.2022'
p5237
aS'949.68'
p5238
aS'7789'
p5239
aS'-0.14'
p5240
aS'1075.23'
p5241
aS'8819'
p5242
aS'13.22'
p5243
aS'1030'
p5244
asS'KLP AksjeGlobal Indeks V'
p5245
(lp5246
S'NOK'
p5247
aS'7.6671'
p5248
aS'1055.69'
p5249
aS'8094'
p5250
aS'0.36'
p5251
aS'1110.56'
p5252
aS'8515'
p5253
aS'5.20'
p5254
aS'421'
p5255
asS'KLP AksjeFremvoksende Markeder Indeks II'
p5256
(lp5257
S'NOK'
p5258
aS'3.7696'
p5259
aS'1514.75'
p5260
aS'5710'
p5261
aS'-0.30'
p5262
aS'1593.52'
p5263
aS'6007'
p5264
aS'5.20'
p5265
aS'297'
p5266
asS'Global X MSCI SuperDividend EAFE ETF'
p5267
(lp5268
S'USD'
p5269
aS'153'
p5270
aS'15.83'
p5271
aS'0.00'
p5272
aS'16.07'
p5273
aS'2459'
p5274
aS'20504'
p5275
aS'-0.33'
p5276
aS'-67.84'
p5277
asS'Alfred Berg Gambak'
p5278
(lp5279
S'NOK'
p5280
aS'0.2821'
p5281
aS'23551.30'
p5282
aS'6644'
p5283
aS'-0.86'
p5284
aS'26184.46'
p5285
aS'7387'
p5286
aS'11.18'
p5287
aS'743'
p5288
asS'Delphi Nordic'
p5289
(lp5290
S'NOK'
p5291
aS'0.1871'
p5292
aS'29681.01'
p5293
aS'5553'
p5294
aS'-0.03'
p5295
aS'31754.05'
p5296
aS'5941'
p5297
aS'6.98'
p5298
aS'388'
p5299
asS'date'
p5300
(lp5301
F1487635389.517801
aS'21.02.17'
p5302
asS'Alfred Berg Nordisk Eiendom C'
p5303
(lp5304
S'NOK'
p5305
aS'32.4782'
p5306
aS'109.36'
p5307
aS'3552'
p5308
aS'-0.39'
p5309
aS'111.42'
p5310
aS'3619'
p5311
aS'1.88'
p5312
aS'67'
p5313
asS'SKAGEN Focus A'
p5314
(lp5315
S'NOK'
p5316
aS'65.7933'
p5317
aS'98.57'
p5318
aS'6485'
p5319
aS'-0.06'
p5320
aS'108.40'
p5321
aS'7132'
p5322
aS'9.98'
p5323
aS'647'
p5324
asS'Global X SuperIncome Preferred ETF'
p5325
(lp5326
S'USD'
p5327
aS'187'
p5328
aS'13.43'
p5329
aS'0.00'
p5330
aS'13.21'
p5331
aS'2470'
p5332
aS'20601'
p5333
aS'0.63'
p5334
aS'129'
p5335
asa(dp5336
S'KLP AksjeGlobal Indeks V'
p5337
(lp5338
S'NOK'
p5339
aS'7.6671'
p5340
aS'1055.69'
p5341
aS'8094'
p5342
aS'-0.36'
p5343
aS'1114.24'
p5344
aS'8543'
p5345
aS'5.55'
p5346
aS'449'
p5347
asS'KLP AksjeFremvoksende Markeder Indeks II'
p5348
(lp5349
S'NOK'
p5350
aS'3.7696'
p5351
aS'1514.75'
p5352
aS'5710'
p5353
aS'-0.40'
p5354
aS'1613.70'
p5355
aS'6083'
p5356
aS'6.53'
p5357
aS'373'
p5358
asS'Global X MSCI SuperDividend EAFE ETF'
p5359
(lp5360
S'USD'
p5361
aS'153'
p5362
aS'15.83'
p5363
aS'0.00'
p5364
aS'15.84'
p5365
aS'2424'
p5366
aS'20272'
p5367
aS'-1.46'
p5368
aS'-299.84'
p5369
asS'Alfred Berg Gambak'
p5370
(lp5371
S'NOK'
p5372
aS'0.2821'
p5373
aS'23551.30'
p5374
aS'6644'
p5375
aS'-0.34'
p5376
aS'26390.39'
p5377
aS'7445'
p5378
aS'12.05'
p5379
aS'801'
p5380
asS'Delphi Nordic'
p5381
(lp5382
S'NOK'
p5383
aS'0.1871'
p5384
aS'29681.01'
p5385
aS'5553'
p5386
aS'-1.77'
p5387
aS'31366.66'
p5388
aS'5869'
p5389
aS'5.68'
p5390
aS'315'
p5391
asS'Global X SuperIncome Preferred ETF'
p5392
(lp5393
S'USD'
p5394
aS'187'
p5395
aS'13.43'
p5396
aS'0.08'
p5397
aS'13.24'
p5398
aS'2476'
p5399
aS'20710'
p5400
aS'1.17'
p5401
aS'239'
p5402
asS'date'
p5403
(lp5404
F1488029100.8110039
aS'25.02.17'
p5405
asS'Alfred Berg Nordisk Eiendom C'
p5406
(lp5407
S'NOK'
p5408
aS'32.4782'
p5409
aS'109.36'
p5410
aS'3552'
p5411
aS'-0.87'
p5412
aS'110.01'
p5413
aS'3573'
p5414
aS'0.59'
p5415
aS'21'
p5416
asS'SKAGEN Focus A'
p5417
(lp5418
S'NOK'
p5419
aS'65.7933'
p5420
aS'98.57'
p5421
aS'6485'
p5422
aS'-1.25'
p5423
aS'108.55'
p5424
aS'7142'
p5425
aS'10.12'
p5426
aS'656'
p5427
asS'DNB Teknologi'
p5428
(lp5429
S'NOK'
p5430
aS'8.2022'
p5431
aS'949.68'
p5432
aS'7789'
p5433
aS'-0.06'
p5434
aS'1090.04'
p5435
aS'8941'
p5436
aS'14.78'
p5437
aS'1151'
p5438
asa(dp5439
S'DNB Teknologi'
p5440
(lp5441
S'NOK'
p5442
aS'8.2022'
p5443
aS'949.68'
p5444
aS'7789'
p5445
aS'0.29'
p5446
aS'1090.30'
p5447
aS'8943'
p5448
aS'14.81'
p5449
aS'1153'
p5450
asS'KLP AksjeGlobal Indeks V'
p5451
(lp5452
S'NOK'
p5453
aS'7.6671'
p5454
aS'1055.69'
p5455
aS'8094'
p5456
aS'-0.05'
p5457
aS'1113.66'
p5458
aS'8539'
p5459
aS'5.49'
p5460
aS'444'
p5461
asS'KLP AksjeFremvoksende Markeder Indeks II'
p5462
(lp5463
S'NOK'
p5464
aS'3.7696'
p5465
aS'1514.75'
p5466
aS'5710'
p5467
aS'-0.66'
p5468
aS'1602.99'
p5469
aS'6043'
p5470
aS'5.83'
p5471
aS'333'
p5472
asS'Global X MSCI SuperDividend EAFE ETF'
p5473
(lp5474
S'USD'
p5475
aS'153'
p5476
aS'15.83'
p5477
aS'0.00'
p5478
aS'15.90'
p5479
aS'2433'
p5480
aS'20373'
p5481
aS'-0.97'
p5482
aS'-198.84'
p5483
asS'Alfred Berg Gambak'
p5484
(lp5485
S'NOK'
p5486
aS'0.2821'
p5487
aS'23551.30'
p5488
aS'6644'
p5489
aS'-1.16'
p5490
aS'26085.34'
p5491
aS'7359'
p5492
aS'10.76'
p5493
aS'715'
p5494
asS'Delphi Nordic'
p5495
(lp5496
S'NOK'
p5497
aS'0.1871'
p5498
aS'29681.01'
p5499
aS'5553'
p5500
aS'-0.13'
p5501
aS'31326.79'
p5502
aS'5861'
p5503
aS'5.54'
p5504
aS'308'
p5505
asS'date'
p5506
(lp5507
F1488286971.429245
aS'28.02.17'
p5508
asS'Alfred Berg Nordisk Eiendom C'
p5509
(lp5510
S'NOK'
p5511
aS'32.4782'
p5512
aS'109.36'
p5513
aS'3552'
p5514
aS'-0.98'
p5515
aS'108.93'
p5516
aS'3538'
p5517
aS'-0.40'
p5518
aS'-14'
p5519
asS'SKAGEN Focus A'
p5520
(lp5521
S'NOK'
p5522
aS'65.7933'
p5523
aS'98.57'
p5524
aS'6485'
p5525
aS'-0.03'
p5526
aS'108.52'
p5527
aS'7140'
p5528
aS'10.09'
p5529
aS'655'
p5530
asS'Global X SuperIncome Preferred ETF'
p5531
(lp5532
S'USD'
p5533
aS'187'
p5534
aS'13.43'
p5535
aS'0.08'
p5536
aS'13.24'
p5537
aS'2476'
p5538
aS'20735'
p5539
aS'1.29'
p5540
aS'263'
p5541
asa(dp5542
S'KLP AksjeGlobal Indeks V'
p5543
(lp5544
S'NOK'
p5545
aS'7.6671'
p5546
aS'1055.69'
p5547
aS'8094'
p5548
aS'-0.05'
p5549
aS'1114.36'
p5550
aS'8544'
p5551
aS'5.56'
p5552
aS'450'
p5553
asS'KLP AksjeFremvoksende Markeder Indeks II'
p5554
(lp5555
S'NOK'
p5556
aS'3.7696'
p5557
aS'1514.75'
p5558
aS'5710'
p5559
aS'-0.31'
p5560
aS'1593.92'
p5561
aS'6008'
p5562
aS'5.23'
p5563
aS'298'
p5564
asS'Global X MSCI SuperDividend EAFE ETF'
p5565
(lp5566
S'USD'
p5567
aS'153'
p5568
aS'15.83'
p5569
aS'0.00'
p5570
aS'15.97'
p5571
aS'2443'
p5572
aS'20523'
p5573
aS'-0.24'
p5574
aS'-48.84'
p5575
asS'Alfred Berg Gambak'
p5576
(lp5577
S'NOK'
p5578
aS'0.2821'
p5579
aS'23551.30'
p5580
aS'6644'
p5581
aS'0.28'
p5582
aS'26208.70'
p5583
aS'7393'
p5584
aS'11.28'
p5585
aS'750'
p5586
asS'Delphi Nordic'
p5587
(lp5588
S'NOK'
p5589
aS'0.1871'
p5590
aS'29681.01'
p5591
aS'5553'
p5592
aS'0.55'
p5593
aS'31498.22'
p5594
aS'5893'
p5595
aS'6.12'
p5596
aS'340'
p5597
asS'Global X SuperIncome Preferred ETF'
p5598
(lp5599
S'USD'
p5600
aS'187'
p5601
aS'13.43'
p5602
aS'-0.61'
p5603
aS'13.07'
p5604
aS'2444'
p5605
aS'20529'
p5606
aS'0.28'
p5607
aS'57'
p5608
asS'date'
p5609
(lp5610
F1488388596.5570271
aS'01.03.17'
p5611
asS'Alfred Berg Nordisk Eiendom C'
p5612
(lp5613
S'NOK'
p5614
aS'32.4782'
p5615
aS'109.36'
p5616
aS'3552'
p5617
aS'0.11'
p5618
aS'109.05'
p5619
aS'3542'
p5620
aS'-0.29'
p5621
aS'-10'
p5622
asS'SKAGEN Focus A'
p5623
(lp5624
S'NOK'
p5625
aS'66.7106'
p5626
aS'98.71'
p5627
aS'6585'
p5628
aS'0.46'
p5629
aS'109.02'
p5630
aS'7273'
p5631
aS'10.44'
p5632
aS'687'
p5633
asS'DNB Teknologi'
p5634
(lp5635
S'NOK'
p5636
aS'8.2022'
p5637
aS'949.68'
p5638
aS'7789'
p5639
aS'-0.12'
p5640
aS'1088.94'
p5641
aS'8932'
p5642
aS'14.66'
p5643
aS'1142'
p5644
asa(dp5645
S'DNB Teknologi'
p5646
(lp5647
S'NOK'
p5648
aS'8.6246'
p5649
aS'956.50'
p5650
aS'8249'
p5651
aS'1.34'
p5652
aS'1103.53'
p5653
aS'9518'
p5654
aS'15.37'
p5655
aS'1268'
p5656
asS'KLP AksjeGlobal Indeks V'
p5657
(lp5658
S'NOK'
p5659
aS'8.0440'
p5660
aS'1058.44'
p5661
aS'8514'
p5662
aS'1.55'
p5663
aS'1131.58'
p5664
aS'9102'
p5665
aS'6.91'
p5666
aS'588'
p5667
asS'KLP AksjeFremvoksende Markeder Indeks II'
p5668
(lp5669
S'NOK'
p5670
aS'3.9439'
p5671
aS'1518.80'
p5672
aS'5990'
p5673
aS'0.78'
p5674
aS'1606.30'
p5675
aS'6335'
p5676
aS'5.76'
p5677
aS'345'
p5678
asS'Global X MSCI SuperDividend EAFE ETF'
p5679
(lp5680
S'USD'
p5681
aS'153'
p5682
aS'15.83'
p5683
aS'0.00'
p5684
aS'16.03'
p5685
aS'2453'
p5686
aS'20809'
p5687
aS'1.15'
p5688
aS'237.16'
p5689
asS'Alfred Berg Gambak'
p5690
(lp5691
S'NOK'
p5692
aS'0.2997'
p5693
aS'23703.11'
p5694
aS'7104'
p5695
aS'0.63'
p5696
aS'26374.42'
p5697
aS'7904'
p5698
aS'11.27'
p5699
aS'801'
p5700
asS'Delphi Nordic'
p5701
(lp5702
S'NOK'
p5703
aS'0.1927'
p5704
aS'29752.55'
p5705
aS'5733'
p5706
aS'0.64'
p5707
aS'32201.36'
p5708
aS'6205'
p5709
aS'8.23'
p5710
aS'472'
p5711
asS'date'
p5712
(lp5713
F1488506363.503752
aS'03.03.17'
p5714
asS'Alfred Berg Nordisk Eiendom C'
p5715
(lp5716
S'NOK'
p5717
aS'33.3952'
p5718
aS'109.35'
p5719
aS'3652'
p5720
aS'-0.10'
p5721
aS'109.03'
p5722
aS'3641'
p5723
aS'-0.30'
p5724
aS'-11'
p5725
asS'SKAGEN Focus A'
p5726
(lp5727
S'NOK'
p5728
aS'66.7106'
p5729
aS'98.71'
p5730
aS'6585'
p5731
aS'0.19'
p5732
aS'110.48'
p5733
aS'7370'
p5734
aS'11.92'
p5735
aS'785'
p5736
asS'Global X SuperIncome Preferred ETF'
p5737
(lp5738
S'USD'
p5739
aS'187'
p5740
aS'13.43'
p5741
aS'0.00'
p5742
aS'13.07'
p5743
aS'2444'
p5744
aS'20736'
p5745
aS'1.29'
p5746
aS'265'
p5747
asa(dp5748
S'KLP AksjeGlobal Indeks V'
p5749
(lp5750
S'NOK'
p5751
aS'8.0440'
p5752
aS'1058.44'
p5753
aS'8514'
p5754
aS'0.34'
p5755
aS'1135.43'
p5756
aS'9133'
p5757
aS'7.27'
p5758
aS'619'
p5759
asS'KLP AksjeFremvoksende Markeder Indeks II'
p5760
(lp5761
S'NOK'
p5762
aS'3.9439'
p5763
aS'1518.80'
p5764
aS'5990'
p5765
aS'0.54'
p5766
aS'1614.90'
p5767
aS'6369'
p5768
aS'6.33'
p5769
aS'379'
p5770
asS'Global X MSCI SuperDividend EAFE ETF'
p5771
(lp5772
S'USD'
p5773
aS'153'
p5774
aS'15.83'
p5775
aS'0.00'
p5776
aS'16.04'
p5777
aS'2454'
p5778
aS'20812'
p5779
aS'1.17'
p5780
aS'240.16'
p5781
asS'Alfred Berg Gambak'
p5782
(lp5783
S'NOK'
p5784
aS'0.2997'
p5785
aS'23703.11'
p5786
aS'7104'
p5787
aS'0.67'
p5788
aS'26552.40'
p5789
aS'7958'
p5790
aS'12.02'
p5791
aS'854'
p5792
asS'Delphi Nordic'
p5793
(lp5794
S'NOK'
p5795
aS'0.1927'
p5796
aS'29752.55'
p5797
aS'5733'
p5798
aS'-0.40'
p5799
aS'32071.87'
p5800
aS'6180'
p5801
aS'7.80'
p5802
aS'447'
p5803
asS'Global X SuperIncome Preferred ETF'
p5804
(lp5805
S'USD'
p5806
aS'187'
p5807
aS'13.43'
p5808
aS'0.00'
p5809
aS'13.01'
p5810
aS'2433'
p5811
aS'20632'
p5812
aS'0.79'
p5813
aS'161'
p5814
asS'date'
p5815
(lp5816
F1488803069.447839
aS'06.03.17'
p5817
asS'Alfred Berg Nordisk Eiendom C'
p5818
(lp5819
S'NOK'
p5820
aS'33.3952'
p5821
aS'109.35'
p5822
aS'3652'
p5823
aS'-0.17'
p5824
aS'108.84'
p5825
aS'3635'
p5826
aS'-0.47'
p5827
aS'-17'
p5828
asS'SKAGEN Focus A'
p5829
(lp5830
S'NOK'
p5831
aS'66.7106'
p5832
aS'98.71'
p5833
aS'6585'
p5834
aS'-0.69'
p5835
aS'109.72'
p5836
aS'7319'
p5837
aS'11.15'
p5838
aS'734'
p5839
asS'DNB Teknologi'
p5840
(lp5841
S'NOK'
p5842
aS'8.6246'
p5843
aS'956.50'
p5844
aS'8249'
p5845
aS'0.13'
p5846
aS'1109.48'
p5847
aS'9569'
p5848
aS'15.99'
p5849
aS'1319'
p5850
asa(dp5851
S'DNB Teknologi'
p5852
(lp5853
S'NOK'
p5854
aS'8.6246'
p5855
aS'956.50'
p5856
aS'8249'
p5857
aS'-0.26'
p5858
aS'1106.56'
p5859
aS'9544'
p5860
aS'15.69'
p5861
aS'1294'
p5862
asS'KLP AksjeGlobal Indeks V'
p5863
(lp5864
S'NOK'
p5865
aS'8.0440'
p5866
aS'1058.44'
p5867
aS'8514'
p5868
aS'0.02'
p5869
aS'1135.66'
p5870
aS'9135'
p5871
aS'7.30'
p5872
aS'621'
p5873
asS'KLP AksjeFremvoksende Markeder Indeks II'
p5874
(lp5875
S'NOK'
p5876
aS'3.9439'
p5877
aS'1518.80'
p5878
aS'5990'
p5879
aS'-0.57'
p5880
aS'1605.67'
p5881
aS'6333'
p5882
aS'5.72'
p5883
aS'343'
p5884
asS'Global X MSCI SuperDividend EAFE ETF'
p5885
(lp5886
S'USD'
p5887
aS'153'
p5888
aS'15.83'
p5889
aS'0.00'
p5890
aS'16.06'
p5891
aS'2457'
p5892
aS'20786'
p5893
aS'1.04'
p5894
aS'214.16'
p5895
asS'Alfred Berg Gambak'
p5896
(lp5897
S'NOK'
p5898
aS'0.2997'
p5899
aS'23703.11'
p5900
aS'7104'
p5901
aS'-1.11'
p5902
aS'26257.86'
p5903
aS'7869'
p5904
aS'10.78'
p5905
aS'766'
p5906
asS'Delphi Nordic'
p5907
(lp5908
S'NOK'
p5909
aS'0.1927'
p5910
aS'29752.55'
p5911
aS'5733'
p5912
aS'0.21'
p5913
aS'32137.98'
p5914
aS'6193'
p5915
aS'8.02'
p5916
aS'460'
p5917
asS'date'
p5918
(lp5919
F1488888387.1072681
aS'07.03.17'
p5920
asS'Alfred Berg Nordisk Eiendom C'
p5921
(lp5922
S'NOK'
p5923
aS'33.3952'
p5924
aS'109.35'
p5925
aS'3652'
p5926
aS'0.45'
p5927
aS'109.33'
p5928
aS'3651'
p5929
aS'-0.02'
p5930
aS'-1'
p5931
asS'SKAGEN Focus A'
p5932
(lp5933
S'NOK'
p5934
aS'66.7106'
p5935
aS'98.71'
p5936
aS'6585'
p5937
aS'-0.13'
p5938
aS'109.58'
p5939
aS'7310'
p5940
aS'11.01'
p5941
aS'725'
p5942
asS'Global X SuperIncome Preferred ETF'
p5943
(lp5944
S'USD'
p5945
aS'187'
p5946
aS'13.43'
p5947
aS'0.38'
p5948
aS'13.07'
p5949
aS'2444'
p5950
aS'20675'
p5951
aS'0.99'
p5952
aS'204'
p5953
asa(dp5954
S'KLP AksjeGlobal Indeks V'
p5955
(lp5956
S'NOK'
p5957
aS'8.0440'
p5958
aS'1058.44'
p5959
aS'8514'
p5960
aS'-0.03'
p5961
aS'1135.35'
p5962
aS'9133'
p5963
aS'7.27'
p5964
aS'619'
p5965
asS'KLP AksjeFremvoksende Markeder Indeks II'
p5966
(lp5967
S'NOK'
p5968
aS'3.9439'
p5969
aS'1518.80'
p5970
aS'5990'
p5971
aS'0.50'
p5972
aS'1613.69'
p5973
aS'6364'
p5974
aS'6.25'
p5975
aS'374'
p5976
asS'Global X MSCI SuperDividend EAFE ETF'
p5977
(lp5978
S'USD'
p5979
aS'153'
p5980
aS'15.83'
p5981
aS'0.00'
p5982
aS'16.06'
p5983
aS'2457'
p5984
aS'20861'
p5985
aS'1.41'
p5986
aS'289.16'
p5987
asS'Alfred Berg Gambak'
p5988
(lp5989
S'NOK'
p5990
aS'0.2997'
p5991
aS'23703.11'
p5992
aS'7104'
p5993
aS'0.35'
p5994
aS'26093.96'
p5995
aS'7820'
p5996
aS'10.09'
p5997
aS'717'
p5998
asS'Delphi Nordic'
p5999
(lp6000
S'NOK'
p6001
aS'0.1927'
p6002
aS'29752.55'
p6003
aS'5733'
p6004
aS'-0.31'
p6005
aS'32038.05'
p6006
aS'6174'
p6007
aS'7.68'
p6008
aS'440'
p6009
asS'Global X SuperIncome Preferred ETF'
p6010
(lp6011
S'USD'
p6012
aS'187'
p6013
aS'13.43'
p6014
aS'0.00'
p6015
aS'13.00'
p6016
aS'2431'
p6017
aS'20639'
p6018
aS'0.82'
p6019
aS'168'
p6020
asS'date'
p6021
(lp6022
F1488980222.9720931
aS'08.03.17'
p6023
asS'Alfred Berg Nordisk Eiendom C'
p6024
(lp6025
S'NOK'
p6026
aS'33.3952'
p6027
aS'109.35'
p6028
aS'3652'
p6029
aS'-1.27'
p6030
aS'107.94'
p6031
aS'3605'
p6032
aS'-1.29'
p6033
aS'-47'
p6034
asS'SKAGEN Focus A'
p6035
(lp6036
S'NOK'
p6037
aS'66.7106'
p6038
aS'98.71'
p6039
aS'6585'
p6040
aS'-0.67'
p6041
aS'108.84'
p6042
aS'7261'
p6043
aS'10.26'
p6044
aS'676'
p6045
asS'DNB Teknologi'
p6046
(lp6047
S'NOK'
p6048
aS'8.6246'
p6049
aS'956.50'
p6050
aS'8249'
p6051
aS'-0.35'
p6052
aS'1102.73'
p6053
aS'9511'
p6054
aS'15.29'
p6055
aS'1261'
p6056
asa(dp6057
S'DNB Teknologi'
p6058
(lp6059
S'NOK'
p6060
aS'8.6246'
p6061
aS'956.50'
p6062
aS'8249'
p6063
aS'0.43'
p6064
aS'1107.44'
p6065
aS'9551'
p6066
aS'15.78'
p6067
aS'1302'
p6068
asS'KLP AksjeGlobal Indeks V'
p6069
(lp6070
S'NOK'
p6071
aS'8.0440'
p6072
aS'1058.44'
p6073
aS'8514'
p6074
aS'0.11'
p6075
aS'1131.07'
p6076
aS'9098'
p6077
aS'6.86'
p6078
aS'584'
p6079
asS'KLP AksjeFremvoksende Markeder Indeks II'
p6080
(lp6081
S'NOK'
p6082
aS'3.9439'
p6083
aS'1518.80'
p6084
aS'5990'
p6085
aS'0.28'
p6086
aS'1618.96'
p6087
aS'6385'
p6088
aS'6.59'
p6089
aS'395'
p6090
asS'Global X MSCI SuperDividend EAFE ETF'
p6091
(lp6092
S'USD'
p6093
aS'153'
p6094
aS'15.83'
p6095
aS'0.00'
p6096
aS'15.89'
p6097
aS'2431'
p6098
aS'20883'
p6099
aS'1.51'
p6100
aS'311.16'
p6101
asS'Alfred Berg Gambak'
p6102
(lp6103
S'NOK'
p6104
aS'0.2997'
p6105
aS'23703.11'
p6106
aS'7104'
p6107
aS'0.03'
p6108
aS'26102.93'
p6109
aS'7823'
p6110
aS'10.12'
p6111
aS'719'
p6112
asS'Delphi Nordic'
p6113
(lp6114
S'NOK'
p6115
aS'0.1927'
p6116
aS'29752.55'
p6117
aS'5733'
p6118
aS'-0.11'
p6119
aS'32065.67'
p6120
aS'6179'
p6121
aS'7.77'
p6122
aS'446'
p6123
asS'date'
p6124
(lp6125
F1489134602.0739801
aS'10.03.17'
p6126
asS'Alfred Berg Nordisk Eiendom C'
p6127
(lp6128
S'NOK'
p6129
aS'33.3952'
p6130
aS'109.35'
p6131
aS'3652'
p6132
aS'0.53'
p6133
aS'107.58'
p6134
aS'3593'
p6135
aS'-1.62'
p6136
aS'-59'
p6137
asS'SKAGEN Focus A'
p6138
(lp6139
S'NOK'
p6140
aS'66.7106'
p6141
aS'98.71'
p6142
aS'6585'
p6143
aS'0.59'
p6144
aS'110.20'
p6145
aS'7352'
p6146
aS'11.64'
p6147
aS'766'
p6148
asS'Global X SuperIncome Preferred ETF'
p6149
(lp6150
S'USD'
p6151
aS'187'
p6152
aS'13.43'
p6153
aS'0.16'
p6154
aS'12.86'
p6155
aS'2405'
p6156
aS'20657'
p6157
aS'0.90'
p6158
aS'185'
p6159
asa(dp6160
S'KLP AksjeGlobal Indeks V'
p6161
(lp6162
S'NOK'
p6163
aS'8.0440'
p6164
aS'1058.44'
p6165
aS'8514'
p6166
aS'1.16'
p6167
aS'1144.20'
p6168
aS'9204'
p6169
aS'8.10'
p6170
aS'690'
p6171
asS'KLP AksjeFremvoksende Markeder Indeks II'
p6172
(lp6173
S'NOK'
p6174
aS'3.9439'
p6175
aS'1518.80'
p6176
aS'5990'
p6177
aS'-0.19'
p6178
aS'1615.88'
p6179
aS'6373'
p6180
aS'6.39'
p6181
aS'383'
p6182
asS'Global X MSCI SuperDividend EAFE ETF'
p6183
(lp6184
S'USD'
p6185
aS'153'
p6186
aS'15.83'
p6187
aS'0.00'
p6188
aS'16.20'
p6189
aS'2479'
p6190
aS'21231'
p6191
aS'3.20'
p6192
aS'659.16'
p6193
asS'Alfred Berg Gambak'
p6194
(lp6195
S'NOK'
p6196
aS'0.2997'
p6197
aS'23703.11'
p6198
aS'7104'
p6199
aS'0.64'
p6200
aS'26142.67'
p6201
aS'7835'
p6202
aS'10.29'
p6203
aS'731'
p6204
asS'Delphi Nordic'
p6205
(lp6206
S'NOK'
p6207
aS'0.1927'
p6208
aS'29752.55'
p6209
aS'5733'
p6210
aS'1.34'
p6211
aS'32495.10'
p6212
aS'6262'
p6213
aS'9.22'
p6214
aS'528'
p6215
asS'Global X SuperIncome Preferred ETF'
p6216
(lp6217
S'USD'
p6218
aS'187'
p6219
aS'13.43'
p6220
aS'-0.31'
p6221
aS'12.86'
p6222
aS'2405'
p6223
aS'20599'
p6224
aS'0.62'
p6225
aS'128'
p6226
asS'date'
p6227
(lp6228
F1489410647.603229
aS'13.03.17'
p6229
asS'Alfred Berg Nordisk Eiendom C'
p6230
(lp6231
S'NOK'
p6232
aS'33.3952'
p6233
aS'109.35'
p6234
aS'3652'
p6235
aS'0.04'
p6236
aS'107.62'
p6237
aS'3594'
p6238
aS'-1.59'
p6239
aS'-58'
p6240
asS'SKAGEN Focus A'
p6241
(lp6242
S'NOK'
p6243
aS'66.7106'
p6244
aS'98.71'
p6245
aS'6585'
p6246
aS'0.57'
p6247
aS'110.83'
p6248
aS'7394'
p6249
aS'12.28'
p6250
aS'808'
p6251
asS'DNB Teknologi'
p6252
(lp6253
S'NOK'
p6254
aS'8.6246'
p6255
aS'956.50'
p6256
aS'8249'
p6257
aS'1.23'
p6258
aS'1134.49'
p6259
aS'9785'
p6260
aS'18.61'
p6261
aS'1535'
p6262
asa(dp6263
S'DNB Teknologi'
p6264
(lp6265
S'NOK'
p6266
aS'8.6246'
p6267
aS'956.50'
p6268
aS'8249'
p6269
aS'-0.33'
p6270
aS'1130.75'
p6271
aS'9752'
p6272
aS'18.22'
p6273
aS'1503'
p6274
asS'KLP AksjeGlobal Indeks V'
p6275
(lp6276
S'NOK'
p6277
aS'8.0440'
p6278
aS'1058.44'
p6279
aS'8514'
p6280
aS'-0.49'
p6281
aS'1147.79'
p6282
aS'9233'
p6283
aS'8.44'
p6284
aS'719'
p6285
asS'KLP AksjeFremvoksende Markeder Indeks II'
p6286
(lp6287
S'NOK'
p6288
aS'3.9439'
p6289
aS'1518.80'
p6290
aS'5990'
p6291
aS'0.62'
p6292
aS'1635.94'
p6293
aS'6452'
p6294
aS'7.71'
p6295
aS'462'
p6296
asS'yield'
p6297
(dp6298
S'Global X SuperIncome Preferred ETF'
p6299
F98.799999999999997
sS'Global X MSCI SuperDividend EAFE ETF'
p6300
F63
ssS'Global X MSCI SuperDividend EAFE ETF'
p6301
(lp6302
S'USD'
p6303
aS'153'
p6304
aS'15.83'
p6305
aS'0.00'
p6306
aS'16.26'
p6307
aS'2488'
p6308
aS'21444'
p6309
aS'4.24'
p6310
aS'872.16'
p6311
asS'Alfred Berg Gambak'
p6312
(lp6313
S'NOK'
p6314
aS'0.2997'
p6315
aS'23703.11'
p6316
aS'7104'
p6317
aS'0.37'
p6318
aS'26238.48'
p6319
aS'7864'
p6320
aS'10.70'
p6321
aS'760'
p6322
asS'Delphi Nordic'
p6323
(lp6324
S'NOK'
p6325
aS'0.1927'
p6326
aS'29752.55'
p6327
aS'5733'
p6328
aS'0.29'
p6329
aS'32590.30'
p6330
aS'6280'
p6331
aS'9.54'
p6332
aS'547'
p6333
asS'date'
p6334
(lp6335
F1489501622.383492
aS'14.03.17'
p6336
asS'Alfred Berg Nordisk Eiendom C'
p6337
(lp6338
S'NOK'
p6339
aS'33.3952'
p6340
aS'109.35'
p6341
aS'3652'
p6342
aS'0.13'
p6343
aS'107.76'
p6344
aS'3599'
p6345
aS'-1.46'
p6346
aS'-53'
p6347
asS'SKAGEN Focus A'
p6348
(lp6349
S'NOK'
p6350
aS'66.7106'
p6351
aS'98.71'
p6352
aS'6585'
p6353
aS'0.04'
p6354
aS'110.87'
p6355
aS'7396'
p6356
aS'12.32'
p6357
aS'811'
p6358
asS'Global X SuperIncome Preferred ETF'
p6359
(lp6360
S'USD'
p6361
aS'187'
p6362
aS'13.43'
p6363
aS'0.00'
p6364
aS'12.90'
p6365
aS'2412'
p6366
aS'20793'
p6367
aS'1.57'
p6368
aS'322'
p6369
asa(dp6370
S'DNB Teknologi'
p6371
(lp6372
S'NOK'
p6373
aS'8.6246'
p6374
aS'956.50'
p6375
aS'8249'
p6376
aS'0.19'
p6377
aS'1132.86'
p6378
aS'9770'
p6379
aS'18.44'
p6380
aS'1521'
p6381
asS'KLP AksjeGlobal Indeks V'
p6382
(lp6383
S'NOK'
p6384
aS'8.0440'
p6385
aS'1058.44'
p6386
aS'8514'
p6387
aS'0.22'
p6388
aS'1150.34'
p6389
aS'9253'
p6390
aS'8.68'
p6391
aS'739'
p6392
asS'KLP AksjeFremvoksende Markeder Indeks II'
p6393
(lp6394
S'NOK'
p6395
aS'3.9439'
p6396
aS'1518.80'
p6397
aS'5990'
p6398
aS'0.79'
p6399
aS'1648.82'
p6400
aS'6503'
p6401
aS'8.56'
p6402
aS'513'
p6403
asS'Global X MSCI SuperDividend EAFE ETF'
p6404
(lp6405
S'USD'
p6406
aS'153'
p6407
aS'15.83'
p6408
aS'-0.12'
p6409
aS'16.24'
p6410
aS'2485'
p6411
aS'21119'
p6412
aS'2.66'
p6413
aS'547.16'
p6414
asS'Alfred Berg Gambak'
p6415
(lp6416
S'NOK'
p6417
aS'0.2997'
p6418
aS'23703.11'
p6419
aS'7104'
p6420
aS'-0.35'
p6421
aS'26145.74'
p6422
aS'7836'
p6423
aS'10.31'
p6424
aS'732'
p6425
asS'Delphi Nordic'
p6426
(lp6427
S'NOK'
p6428
aS'0.1927'
p6429
aS'29752.55'
p6430
aS'5733'
p6431
aS'0.69'
p6432
aS'32819.33'
p6433
aS'6324'
p6434
aS'10.31'
p6435
aS'591'
p6436
asS'date'
p6437
(lp6438
F1489615275.166862
aS'15.03.17'
p6439
asS'Alfred Berg Nordisk Eiendom C'
p6440
(lp6441
S'NOK'
p6442
aS'22.3748'
p6443
aS'109.35'
p6444
aS'2447'
p6445
aS'-1.14'
p6446
aS'107.10'
p6447
aS'2396'
p6448
aS'-2.06'
p6449
aS'-50'
p6450
asS'SKAGEN Focus A'
p6451
(lp6452
S'NOK'
p6453
aS'66.7106'
p6454
aS'98.71'
p6455
aS'6585'
p6456
aS'0.20'
p6457
aS'112.06'
p6458
aS'7475'
p6459
aS'13.52'
p6460
aS'890'
p6461
asS'Global X SuperIncome Preferred ETF'
p6462
(lp6463
S'USD'
p6464
aS'187'
p6465
aS'13.43'
p6466
aS'0.62'
p6467
aS'12.99'
p6468
aS'2429'
p6469
aS'20646'
p6470
aS'0.85'
p6471
aS'175'
p6472
asa(dp6473
S'KLP AksjeGlobal Indeks V'
p6474
(lp6475
S'NOK'
p6476
aS'8.0440'
p6477
aS'1058.44'
p6478
aS'8514'
p6479
aS'0.64'
p6480
aS'1157.66'
p6481
aS'9312'
p6482
aS'9.37'
p6483
aS'798'
p6484
asS'KLP AksjeFremvoksende Markeder Indeks II'
p6485
(lp6486
S'NOK'
p6487
aS'3.9439'
p6488
aS'1518.80'
p6489
aS'5990'
p6490
aS'0.43'
p6491
aS'1655.83'
p6492
aS'6530'
p6493
aS'9.02'
p6494
aS'540'
p6495
asS'Global X MSCI SuperDividend EAFE ETF'
p6496
(lp6497
S'USD'
p6498
aS'153'
p6499
aS'15.83'
p6500
aS'0.00'
p6501
aS'16.24'
p6502
aS'2485'
p6503
aS'21187'
p6504
aS'2.99'
p6505
aS'615.16'
p6506
asS'Alfred Berg Gambak'
p6507
(lp6508
S'NOK'
p6509
aS'0.2997'
p6510
aS'23703.11'
p6511
aS'7104'
p6512
aS'0.35'
p6513
aS'26237.61'
p6514
aS'7863'
p6515
aS'10.69'
p6516
aS'760'
p6517
asS'Delphi Nordic'
p6518
(lp6519
S'NOK'
p6520
aS'0.1927'
p6521
aS'29752.55'
p6522
aS'5733'
p6523
aS'0.77'
p6524
aS'33071.72'
p6525
aS'6373'
p6526
aS'11.16'
p6527
aS'640'
p6528
asS'Global X SuperIncome Preferred ETF'
p6529
(lp6530
S'USD'
p6531
aS'187'
p6532
aS'13.43'
p6533
aS'0.15'
p6534
aS'13.01'
p6535
aS'2433'
p6536
aS'20745'
p6537
aS'1.34'
p6538
aS'273'
p6539
asS'date'
p6540
(lp6541
F1489689061.3841629
aS'16.03.17'
p6542
asS'Alfred Berg Nordisk Eiendom C'
p6543
(lp6544
S'NOK'
p6545
aS'22.3748'
p6546
aS'109.35'
p6547
aS'2447'
p6548
aS'2.06'
p6549
aS'109.31'
p6550
aS'2446'
p6551
aS'-0.04'
p6552
aS'-1'
p6553
asS'SKAGEN Focus A'
p6554
(lp6555
S'NOK'
p6556
aS'66.7106'
p6557
aS'98.71'
p6558
aS'6585'
p6559
aS'0.69'
p6560
aS'112.83'
p6561
aS'7527'
p6562
aS'14.30'
p6563
aS'942'
p6564
asS'DNB Teknologi'
p6565
(lp6566
S'NOK'
p6567
aS'8.6246'
p6568
aS'956.50'
p6569
aS'8249'
p6570
aS'0.50'
p6571
aS'1138.56'
p6572
aS'9820'
p6573
aS'19.03'
p6574
aS'1570'
p6575
asa(dp6576
S'DNB Teknologi'
p6577
(lp6578
S'NOK'
p6579
aS'8.6246'
p6580
aS'956.50'
p6581
aS'8249'
p6582
aS'-0.54'
p6583
aS'1137.34'
p6584
aS'9809'
p6585
aS'18.91'
p6586
aS'1560'
p6587
asS'KLP AksjeGlobal Indeks V'
p6588
(lp6589
S'NOK'
p6590
aS'8.0440'
p6591
aS'1058.44'
p6592
aS'8514'
p6593
aS'-0.41'
p6594
aS'1152.89'
p6595
aS'9274'
p6596
aS'8.92'
p6597
aS'760'
p6598
asS'KLP AksjeFremvoksende Markeder Indeks II'
p6599
(lp6600
S'NOK'
p6601
aS'3.9439'
p6602
aS'1518.80'
p6603
aS'5990'
p6604
aS'1.10'
p6605
aS'1674.10'
p6606
aS'6602'
p6607
aS'10.22'
p6608
aS'612'
p6609
asS'Global X MSCI SuperDividend EAFE ETF'
p6610
(lp6611
S'USD'
p6612
aS'153'
p6613
aS'15.83'
p6614
aS'0.00'
p6615
aS'16.48'
p6616
aS'2521'
p6617
aS'21398'
p6618
aS'4.01'
p6619
aS'826.16'
p6620
asS'Alfred Berg Gambak'
p6621
(lp6622
S'NOK'
p6623
aS'0.2997'
p6624
aS'23703.11'
p6625
aS'7104'
p6626
aS'0.30'
p6627
aS'26317.57'
p6628
aS'7887'
p6629
aS'11.03'
p6630
aS'784'
p6631
asS'Delphi Nordic'
p6632
(lp6633
S'NOK'
p6634
aS'0.1927'
p6635
aS'29752.55'
p6636
aS'5733'
p6637
aS'-0.25'
p6638
aS'32989.27'
p6639
aS'6357'
p6640
aS'10.88'
p6641
aS'624'
p6642
asS'date'
p6643
(lp6644
F1490012299.364511
aS'20.03.17'
p6645
asS'Alfred Berg Nordisk Eiendom C'
p6646
(lp6647
S'NOK'
p6648
aS'11.1874'
p6649
aS'109.35'
p6650
aS'1223'
p6651
aS'0.48'
p6652
aS'109.83'
p6653
aS'1229'
p6654
aS'0.44'
p6655
aS'5'
asS'SKAGEN Focus A'
p6656
(lp6657
S'NOK'
p6658
aS'66.7106'
p6659
aS'98.71'
p6660
aS'6585'
p6661
aS'-0.92'
p6662
aS'111.79'
p6663
aS'7458'
p6664
aS'13.25'
p6665
aS'872'
p6666
asS'Global X SuperIncome Preferred ETF'
p6667
(lp6668
S'USD'
p6669
aS'187'
p6670
aS'13.43'
p6671
aS'0.23'
p6672
aS'13.06'
p6673
aS'2442'
p6674
aS'20725'
p6675
aS'1.24'
p6676
aS'254'
p6677
asa(dp6678
S'KLP AksjeGlobal Indeks V'
p6679
(lp6680
S'NOK'
p6681
aS'8.0440'
p6682
aS'1058.44'
p6683
aS'8514'
p6684
aS'-0.66'
p6685
aS'1145.22'
p6686
aS'9212'
p6687
aS'8.20'
p6688
aS'698'
p6689
asS'KLP AksjeFremvoksende Markeder Indeks II'
p6690
(lp6691
S'NOK'
p6692
aS'3.9439'
p6693
aS'1518.80'
p6694
aS'5990'
p6695
aS'-0.38'
p6696
aS'1667.81'
p6697
aS'6578'
p6698
aS'9.81'
p6699
aS'588'
p6700
asS'Global X MSCI SuperDividend EAFE ETF'
p6701
(lp6702
S'USD'
p6703
aS'153'
p6704
aS'15.83'
p6705
aS'0.00'
p6706
aS'16.38'
p6707
aS'2506'
p6708
aS'21147'
p6709
aS'2.79'
p6710
aS'575.16'
p6711
asS'Alfred Berg Gambak'
p6712
(lp6713
S'NOK'
p6714
aS'0.2997'
p6715
aS'23703.11'
p6716
aS'7104'
p6717
aS'0.20'
p6718
aS'26369.36'
p6719
aS'7903'
p6720
aS'11.25'
p6721
aS'799'
p6722
asS'Delphi Nordic'
p6723
(lp6724
S'NOK'
p6725
aS'0.1927'
p6726
aS'29752.55'
p6727
aS'5733'
p6728
aS'0.19'
p6729
aS'33050.45'
p6730
aS'6369'
p6731
aS'11.08'
p6732
aS'636'
p6733
asS'Global X SuperIncome Preferred ETF'
p6734
(lp6735
S'USD'
p6736
aS'187'
p6737
aS'13.43'
p6738
aS'0.00'
p6739
aS'13.02'
p6740
aS'2435'
p6741
aS'20544'
p6742
aS'0.35'
p6743
aS'73'
p6744
asS'date'
p6745
(lp6746
F1490096642.196182
aS'21.03.17'
p6747
asS'Alfred Berg Nordisk Eiendom C'
p6748
(lp6749
S'NOK'
p6750
aS'11.1874'
p6751
aS'109.35'
p6752
aS'1223'
p6753
aS'0.13'
p6754
aS'109.97'
p6755
aS'1230'
p6756
aS'0.56'
p6757
aS'7'
asS'SKAGEN Focus A'
p6758
(lp6759
S'NOK'
p6760
aS'66.7106'
p6761
aS'98.71'
p6762
aS'6585'
p6763
aS'-0.21'
p6764
aS'111.55'
p6765
aS'7442'
p6766
aS'13.00'
p6767
aS'856'
p6768
asS'DNB Teknologi'
p6769
(lp6770
S'NOK'
p6771
aS'8.6246'
p6772
aS'956.50'
p6773
aS'8249'
p6774
aS'0.06'
p6775
aS'1138.07'
p6776
aS'9815'
p6777
aS'18.98'
p6778
aS'1566'
p6779
asa(dp6780
S'KLP AksjeGlobal Indeks V'
p6781
(lp6782
S'NOK'
p6783
aS'8.0440'
p6784
aS'1058.44'
p6785
aS'8514'
p6786
aS'-0.15'
p6787
aS'1132.90'
p6788
aS'9113'
p6789
aS'7.03'
p6790
aS'599'
p6791
asS'KLP AksjeFremvoksende Markeder Indeks II'
p6792
(lp6793
S'NOK'
p6794
aS'3.9439'
p6795
aS'1518.80'
p6796
aS'5990'
p6797
aS'-0.55'
p6798
aS'1670.44'
p6799
aS'6588'
p6800
aS'9.98'
p6801
aS'598'
p6802
asS'Global X MSCI SuperDividend EAFE ETF'
p6803
(lp6804
S'USD'
p6805
aS'153'
p6806
aS'15.83'
p6807
aS'0.00'
p6808
aS'16.28'
p6809
aS'2491'
p6810
aS'21147'
p6811
aS'2.80'
p6812
aS'575.16'
p6813
asS'Alfred Berg Gambak'
p6814
(lp6815
S'NOK'
p6816
aS'0.2997'
p6817
aS'23703.11'
p6818
aS'7104'
p6819
aS'-1.16'
p6820
aS'25969.03'
p6821
aS'7783'
p6822
aS'9.56'
p6823
aS'679'
p6824
asS'Delphi Nordic'
p6825
(lp6826
S'NOK'
p6827
aS'0.1927'
p6828
aS'29752.55'
p6829
aS'5733'
p6830
aS'1.00'
p6831
aS'32867.66'
p6832
aS'6334'
p6833
aS'10.47'
p6834
aS'600'
p6835
asS'date'
p6836
(lp6837
F1490354319.351778
aS'24.03.17'
p6838
asS'DNB Teknologi'
p6839
(lp6840
S'NOK'
p6841
aS'8.6246'
p6842
aS'956.50'
p6843
aS'8249'
p6844
aS'0.23'
p6845
aS'1127.45'
p6846
aS'9724'
p6847
aS'17.87'
p6848
aS'1474'
p6849
asS'SKAGEN Focus A'
p6850
(lp6851
S'NOK'
p6852
aS'66.7106'
p6853
aS'98.71'
p6854
aS'6585'
p6855
aS'0.06'
p6856
aS'110.05'
p6857
aS'7342'
p6858
aS'11.49'
p6859
aS'757'
p6860
asS'Global X SuperIncome Preferred ETF'
p6861
(lp6862
S'USD'
p6863
aS'187'
p6864
aS'13.43'
p6865
aS'0.00'
p6866
aS'12.91'
p6867
aS'2414'
p6868
aS'20496'
p6869
aS'0.12'
p6870
aS'25'
p6871
asa(dp6872
S'KLP AksjeGlobal Indeks V'
p6873
(lp6874
S'NOK'
p6875
aS'8.0440'
p6876
aS'1058.44'
p6877
aS'8514'
p6878
aS'0.31'
p6879
aS'1136.44'
p6880
aS'9142'
p6881
aS'7.37'
p6882
aS'627'
p6883
asS'KLP AksjeFremvoksende Markeder Indeks II'
p6884
(lp6885
S'NOK'
p6886
aS'3.9439'
p6887
aS'1518.80'
p6888
aS'5990'
p6889
aS'0.27'
p6890
aS'1674.89'
p6891
aS'6606'
p6892
aS'10.28'
p6893
aS'616'
p6894
asS'Global X MSCI SuperDividend EAFE ETF'
p6895
(lp6896
S'USD'
p6897
aS'153'
p6898
aS'15.83'
p6899
aS'0.00'
p6900
aS'16.28'
p6901
aS'2491'
p6902
aS'21076'
p6903
aS'2.45'
p6904
aS'504.16'
p6905
asS'Alfred Berg Gambak'
p6906
(lp6907
S'NOK'
p6908
aS'0.2997'
p6909
aS'23703.11'
p6910
aS'7104'
p6911
aS'0.19'
p6912
aS'26019.30'
p6913
aS'7798'
p6914
aS'9.77'
p6915
aS'694'
p6916
asS'Delphi Nordic'
p6917
(lp6918
S'NOK'
p6919
aS'0.1927'
p6920
aS'29752.55'
p6921
aS'5733'
p6922
aS'0.34'
p6923
aS'32979.74'
p6924
aS'6355'
p6925
aS'10.85'
p6926
aS'622'
p6927
asS'date'
p6928
(lp6929
F1490611933.4028721
aS'27.03.17'
p6930
asS'Global X SuperIncome Preferred ETF'
p6931
(lp6932
S'USD'
p6933
aS'187'
p6934
aS'13.43'
p6935
aS'0.00'
p6936
aS'12.99'
p6937
aS'2429'
p6938
aS'20554'
p6939
aS'0.40'
p6940
aS'83'
p6941
asS'SKAGEN Focus A'
p6942
(lp6943
S'NOK'
p6944
aS'66.7106'
p6945
aS'98.71'
p6946
aS'6585'
p6947
aS'0.45'
p6948
aS'110.54'
p6949
aS'7374'
p6950
aS'11.98'
p6951
aS'789'
p6952
asS'DNB Teknologi'
p6953
(lp6954
S'NOK'
p6955
aS'8.6246'
p6956
aS'956.50'
p6957
aS'8249'
p6958
aS'0.34'
p6959
aS'1131.26'
p6960
aS'9757'
p6961
aS'18.27'
p6962
aS'1507'
p6963
asa(dp6964
S'KLP AksjeGlobal Indeks V'
p6965
(lp6966
S'NOK'
p6967
aS'8.0440'
p6968
aS'1058.44'
p6969
aS'8514'
p6970
aS'-0.25'
p6971
aS'1135.93'
p6972
aS'9137'
p6973
aS'7.32'
p6974
aS'623'
p6975
asS'KLP AksjeFremvoksende Markeder Indeks II'
p6976
(lp6977
S'NOK'
p6978
aS'3.9439'
p6979
aS'1518.80'
p6980
aS'5990'
p6981
aS'-0.57'
p6982
aS'1669.65'
p6983
aS'6585'
p6984
aS'9.93'
p6985
aS'595'
p6986
asS'Global X MSCI SuperDividend EAFE ETF'
p6987
(lp6988
S'USD'
p6989
aS'153'
p6990
aS'15.83'
p6991
aS'0.00'
p6992
aS'16.42'
p6993
aS'2512'
p6994
aS'21371'
p6995
aS'3.88'
p6996
aS'799.16'
p6997
asS'Alfred Berg Gambak'
p6998
(lp6999
S'NOK'
p7000
aS'0.2997'
p7001
aS'23703.11'
p7002
aS'7104'
p7003
aS'-2.49'
p7004
aS'25275.79'
p7005
aS'7575'
p7006
aS'6.63'
p7007
aS'471'
p7008
asS'Delphi Nordic'
p7009
(lp7010
S'NOK'
p7011
aS'0.1927'
p7012
aS'29752.55'
p7013
aS'5733'
p7014
aS'-1.12'
p7015
aS'32610.53'
p7016
aS'6284'
p7017
aS'9.61'
p7018
aS'551'
p7019
asS'date'
p7020
(lp7021
F1490709204.388361
aS'28.03.17'
p7022
asS'DNB Teknologi'
p7023
(lp7024
S'NOK'
p7025
aS'8.6246'
p7026
aS'956.50'
p7027
aS'8249'
p7028
aS'0.08'
p7029
aS'1132.16'
p7030
aS'9764'
p7031
aS'18.36'
p7032
aS'1515'
p7033
asS'SKAGEN Focus A'
p7034
(lp7035
S'NOK'
p7036
aS'66.7106'
p7037
aS'98.71'
p7038
aS'6585'
p7039
aS'0.03'
p7040
aS'110.58'
p7041
aS'7377'
p7042
aS'12.02'
p7043
aS'791'
p7044
asS'Global X SuperIncome Preferred ETF'
p7045
(lp7046
S'USD'
p7047
aS'187'
p7048
aS'13.43'
p7049
aS'0.31'
p7050
aS'12.97'
p7051
aS'2425'
p7052
aS'20632'
p7053
aS'0.78'
p7054
aS'160'
p7055
asa(dp7056
S'KLP AksjeGlobal Indeks V'
p7057
(lp7058
S'NOK'
p7059
aS'8.0440'
p7060
aS'1058.44'
p7061
aS'8514'
p7062
aS'1.02'
p7063
aS'1147.54'
p7064
aS'9231'
p7065
aS'8.42'
p7066
aS'717'
p7067
asS'KLP AksjeFremvoksende Markeder Indeks II'
p7068
(lp7069
S'NOK'
p7070
aS'3.9439'
p7071
aS'1518.80'
p7072
aS'5990'
p7073
aS'0.73'
p7074
aS'1681.85'
p7075
aS'6633'
p7076
aS'10.74'
p7077
aS'643'
p7078
asS'Global X MSCI SuperDividend EAFE ETF'
p7079
(lp7080
S'USD'
p7081
aS'153'
p7082
aS'15.83'
p7083
aS'0.00'
p7084
aS'16.53'
p7085
aS'2529'
p7086
aS'21583'
p7087
aS'4.92'
p7088
aS'1011.16'
p7089
asS'Alfred Berg Gambak'
p7090
(lp7091
S'NOK'
p7092
aS'0.2997'
p7093
aS'23703.11'
p7094
aS'7104'
p7095
aS'0.91'
p7096
aS'25505.00'
p7097
aS'7644'
p7098
aS'7.60'
p7099
aS'540'
p7100
asS'Delphi Nordic'
p7101
(lp7102
S'NOK'
p7103
aS'0.1927'
p7104
aS'29752.55'
p7105
aS'5733'
p7106
aS'0.50'
p7107
aS'32772.03'
p7108
aS'6315'
p7109
aS'10.15'
p7110
aS'582'
p7111
asS'date'
p7112
(lp7113
F1490798139.4350491
aS'29.03.17'
p7114
asS'Global X SuperIncome Preferred ETF'
p7115
(lp7116
S'USD'
p7117
aS'187'
p7118
aS'13.43'
p7119
aS'-0.08'
p7120
aS'12.98'
p7121
aS'2427'
p7122
aS'20714'
p7123
aS'1.18'
p7124
aS'243'
p7125
asS'SKAGEN Focus A'
p7126
(lp7127
S'NOK'
p7128
aS'67.7857'
p7129
aS'98.92'
p7130
aS'6705'
p7131
aS'0.94'
p7132
aS'111.62'
p7133
aS'7566'
p7134
aS'12.84'
p7135
aS'861'
p7136
asS'DNB Teknologi'
p7137
(lp7138
S'NOK'
p7139
aS'9.1167'
p7140
aS'966.29'
p7141
aS'8809'
p7142
aS'0.51'
p7143
aS'1137.92'
p7144
aS'10374'
p7145
aS'17.76'
p7146
aS'1565'
p7147
asa(dp7148
S'KLP AksjeGlobal Indeks V'
p7149
(lp7150
S'NOK'
p7151
aS'8.4100'
p7152
aS'1062.32'
p7153
aS'8934'
p7154
aS'0.38'
p7155
aS'1151.89'
p7156
aS'9687'
p7157
aS'8.43'
p7158
aS'753'
p7159
asS'KLP AksjeFremvoksende Markeder Indeks II'
p7160
(lp7161
S'NOK'
p7162
aS'4.1213'
p7163
aS'1526.22'
p7164
aS'6290'
p7165
aS'0.56'
p7166
aS'1691.25'
p7167
aS'6970'
p7168
aS'10.81'
p7169
aS'680'
p7170
asS'Global X MSCI SuperDividend EAFE ETF'
p7171
(lp7172
S'USD'
p7173
aS'153'
p7174
aS'15.83'
p7175
aS'0.00'
p7176
aS'16.49'
p7177
aS'2523'
p7178
aS'21667'
p7179
aS'5.32'
p7180
aS'1095.16'
p7181
asS'Alfred Berg Gambak'
p7182
(lp7183
S'NOK'
p7184
aS'0.3154'
p7185
aS'23791.45'
p7186
aS'7504'
p7187
aS'-0.38'
p7188
aS'25409.30'
p7189
aS'8014'
p7190
aS'6.80'
p7191
aS'510'
p7192
asS'Delphi Nordic'
p7193
(lp7194
S'NOK'
p7195
aS'0.1988'
p7196
aS'29845.66'
p7197
aS'5933'
p7198
aS'0.59'
p7199
aS'33009.79'
p7200
aS'6562'
p7201
aS'10.60'
p7202
aS'629'
p7203
asS'date'
p7204
(lp7205
F1490951929.265449
aS'31.03.17'
p7206
asS'DNB Teknologi'
p7207
(lp7208
S'NOK'
p7209
aS'9.1167'
p7210
aS'966.30'
p7211
aS'8809'
p7212
aS'0.49'
p7213
aS'1143.46'
p7214
aS'10425'
p7215
aS'18.33'
p7216
aS'1615'
p7217
asS'SKAGEN Focus A'
p7218
(lp7219
S'NOK'
p7220
aS'67.7857'
p7221
aS'98.92'
p7222
aS'6705'
p7223
aS'-0.29'
p7224
aS'112.15'
p7225
aS'7602'
p7226
aS'13.38'
p7227
aS'897'
p7228
asS'Global X SuperIncome Preferred ETF'
p7229
(lp7230
S'USD'
p7231
aS'187'
p7232
aS'13.43'
p7233
aS'0.00'
p7234
aS'13.07'
p7235
aS'2444'
p7236
aS'20990'
p7237
aS'2.53'
p7238
aS'518'
p7239
asa(dp7240
S'KLP AksjeGlobal Indeks V'
p7241
(lp7242
S'NOK'
p7243
aS'8.4100'
p7244
aS'1062.32'
p7245
aS'8934'
p7246
aS'0.26'
p7247
aS'1157.79'
p7248
aS'9737'
p7249
aS'8.99'
p7250
aS'803'
p7251
asS'KLP AksjeFremvoksende Markeder Indeks II'
p7252
(lp7253
S'NOK'
p7254
aS'4.1213'
p7255
aS'1526.22'
p7256
aS'6290'
p7257
aS'-0.58'
p7258
aS'1678.31'
p7259
aS'6917'
p7260
aS'9.97'
p7261
aS'627'
p7262
asS'Global X MSCI SuperDividend EAFE ETF'
p7263
(lp7264
S'USD'
p7265
aS'153'
p7266
aS'15.83'
p7267
aS'0.00'
p7268
aS'16.50'
p7269
aS'2524'
p7270
aS'21692'
p7271
aS'5.45'
p7272
aS'1120.16'
p7273
asS'Alfred Berg Gambak'
p7274
(lp7275
S'NOK'
p7276
aS'0.3154'
p7277
aS'23791.45'
p7278
aS'7504'
p7279
aS'-1.23'
p7280
aS'25276.75'
p7281
aS'7972'
p7282
aS'6.24'
p7283
aS'468'
p7284
asS'Delphi Nordic'
p7285
(lp7286
S'NOK'
p7287
aS'0.1988'
p7288
aS'29845.66'
p7289
aS'5933'
p7290
aS'-0.13'
p7291
aS'32990.27'
p7292
aS'6558'
p7293
aS'10.54'
p7294
aS'625'
p7295
asS'date'
p7296
(lp7297
F1491244188.8659201
aS'03.04.17'
p7298
asS'Global X SuperIncome Preferred ETF'
p7299
(lp7300
S'USD'
p7301
aS'187'
p7302
aS'13.43'
p7303
aS'-0.54'
p7304
aS'13.01'
p7305
aS'2433'
p7306
aS'20905'
p7307
aS'2.12'
p7308
aS'433'
p7309
asS'SKAGEN Focus A'
p7310
(lp7311
S'NOK'
p7312
aS'67.7857'
p7313
aS'98.92'
p7314
aS'6705'
p7315
aS'0.54'
p7316
aS'112.75'
p7317
aS'7643'
p7318
aS'13.99'
p7319
aS'938'
p7320
asS'DNB Teknologi'
p7321
(lp7322
S'NOK'
p7323
aS'9.1167'
p7324
aS'966.30'
p7325
aS'8809'
p7326
aS'0.79'
p7327
aS'1160.62'
p7328
aS'10581'
p7329
aS'20.11'
p7330
aS'1772'
p7331
asa(dp7332
S'KLP AksjeGlobal Indeks V'
p7333
(lp7334
S'NOK'
p7335
aS'8.4100'
p7336
aS'1062.32'
p7337
aS'8934'
p7338
aS'-0.15'
p7339
aS'1156.07'
p7340
aS'9723'
p7341
aS'8.83'
p7342
aS'788'
p7343
asS'KLP AksjeFremvoksende Markeder Indeks II'
p7344
(lp7345
S'NOK'
p7346
aS'4.1213'
p7347
aS'1526.22'
p7348
aS'6290'
p7349
aS'0.81'
p7350
aS'1691.83'
p7351
aS'6973'
p7352
aS'10.85'
p7353
aS'683'
p7354
asS'Global X MSCI SuperDividend EAFE ETF'
p7355
(lp7356
S'USD'
p7357
aS'153'
p7358
aS'15.83'
p7359
aS'-0.73'
p7360
aS'16.38'
p7361
aS'2506'
p7362
aS'21548'
p7363
aS'4.74'
p7364
aS'976.16'
p7365
asS'Alfred Berg Gambak'
p7366
(lp7367
S'NOK'
p7368
aS'0.3154'
p7369
aS'23791.45'
p7370
aS'7504'
p7371
aS'0.81'
p7372
aS'25481.83'
p7373
aS'8037'
p7374
aS'7.10'
p7375
aS'533'
p7376
asS'Delphi Nordic'
p7377
(lp7378
S'NOK'
p7379
aS'0.1988'
p7380
aS'29845.66'
p7381
aS'5933'
p7382
aS'-0.17'
p7383
aS'32933.08'
p7384
aS'6547'
p7385
aS'10.34'
p7386
aS'614'
p7387
asS'date'
p7388
(lp7389
F1491331587.7865319
aS'04.04.17'
p7390
asS'DNB Teknologi'
p7391
(lp7392
S'NOK'
p7393
aS'9.1167'
p7394
aS'966.30'
p7395
aS'8809'
p7396
aS'-0.31'
p7397
aS'1156.98'
p7398
aS'10548'
p7399
aS'19.73'
p7400
aS'1738'
p7401
asS'SKAGEN Focus A'
p7402
(lp7403
S'NOK'
p7404
aS'67.7857'
p7405
aS'98.92'
p7406
aS'6705'
p7407
aS'-0.21'
p7408
aS'112.11'
p7409
aS'7600'
p7410
aS'13.34'
p7411
aS'894'
p7412
asS'Global X SuperIncome Preferred ETF'
p7413
(lp7414
S'USD'
p7415
aS'187'
p7416
aS'13.43'
p7417
aS'0.00'
p7418
aS'13.04'
p7419
aS'2438'
p7420
aS'20966'
p7421
aS'2.41'
p7422
aS'494'
p7423
asa(dp7424
S'KLP AksjeGlobal Indeks V'
p7425
(lp7426
S'NOK'
p7427
aS'8.4100'
p7428
aS'1062.32'
p7429
aS'8934'
p7430
aS'0.11'
p7431
aS'1157.29'
p7432
aS'9733'
p7433
aS'8.94'
p7434
aS'799'
p7435
asS'KLP AksjeFremvoksende Markeder Indeks II'
p7436
(lp7437
S'NOK'
p7438
aS'4.1213'
p7439
aS'1526.22'
p7440
aS'6290'
p7441
aS'0.08'
p7442
aS'1693.12'
p7443
aS'6978'
p7444
aS'10.94'
p7445
aS'688'
p7446
asS'Global X MSCI SuperDividend EAFE ETF'
p7447
(lp7448
S'USD'
p7449
aS'153'
p7450
aS'15.83'
p7451
aS'0.00'
p7452
aS'16.38'
p7453
aS'2506'
p7454
aS'21553'
p7455
aS'4.77'
p7456
aS'981.16'
p7457
asS'Alfred Berg Gambak'
p7458
(lp7459
S'NOK'
p7460
aS'0.3154'
p7461
aS'23791.45'
p7462
aS'7504'
p7463
aS'-0.38'
p7464
aS'25383.86'
p7465
aS'8006'
p7466
aS'6.69'
p7467
aS'502'
p7468
asS'Delphi Nordic'
p7469
(lp7470
S'NOK'
p7471
aS'0.1988'
p7472
aS'29845.66'
p7473
aS'5933'
p7474
aS'0.74'
p7475
aS'33175.52'
p7476
aS'6595'
p7477
aS'11.16'
p7478
aS'662'
p7479
asS'date'
p7480
(lp7481
F1491426160.2419529
aS'05.04.17'
p7482
asS'Global X SuperIncome Preferred ETF'
p7483
(lp7484
S'USD'
p7485
aS'187'
p7486
aS'13.43'
p7487
aS'-0.31'
p7488
aS'13.02'
p7489
aS'2435'
p7490
aS'20939'
p7491
aS'2.28'
p7492
aS'468'
p7493
asS'SKAGEN Focus A'
p7494
(lp7495
S'NOK'
p7496
aS'67.7857'
p7497
aS'98.92'
p7498
aS'6705'
p7499
aS'0.37'
p7500
aS'112.53'
p7501
aS'7628'
p7502
aS'13.76'
p7503
aS'922'
p7504
asS'DNB Teknologi'
p7505
(lp7506
S'NOK'
p7507
aS'9.1167'
p7508
aS'966.30'
p7509
aS'8809'
p7510
aS'0.06'
p7511
aS'1157.66'
p7512
aS'10554'
p7513
aS'19.80'
p7514
aS'1745'
p7515
asa(dp7516
S'KLP AksjeGlobal Indeks V'
p7517
(lp7518
S'NOK'
p7519
aS'8.4100'
p7520
aS'1062.32'
p7521
aS'8934'
p7522
aS'-0.29'
p7523
aS'1153.95'
p7524
aS'9705'
p7525
aS'8.63'
p7526
aS'771'
p7527
asS'KLP AksjeFremvoksende Markeder Indeks II'
p7528
(lp7529
S'NOK'
p7530
aS'4.1213'
p7531
aS'1526.22'
p7532
aS'6290'
p7533
aS'-0.54'
p7534
aS'1689.93'
p7535
aS'6965'
p7536
aS'10.73'
p7537
aS'675'
p7538
asS'Global X MSCI SuperDividend EAFE ETF'
p7539
(lp7540
S'USD'
p7541
aS'153'
p7542
aS'15.83'
p7543
aS'0.00'
p7544
aS'16.38'
p7545
aS'2506'
p7546
aS'21609'
p7547
aS'5.04'
p7548
aS'1037.16'
p7549
asS'Alfred Berg Gambak'
p7550
(lp7551
S'NOK'
p7552
aS'0.3154'
p7553
aS'23791.45'
p7554
aS'7504'
p7555
aS'0.41'
p7556
aS'25848.47'
p7557
aS'8153'
p7558
aS'8.65'
p7559
aS'649'
p7560
asS'Delphi Nordic'
p7561
(lp7562
S'NOK'
p7563
aS'0.1988'
p7564
aS'29845.66'
p7565
aS'5933'
p7566
aS'0.07'
p7567
aS'33200.33'
p7568
aS'6600'
p7569
aS'11.24'
p7570
aS'667'
p7571
asS'date'
p7572
(lp7573
F1491570205.3521731
aS'07.04.17'
p7574
asS'DNB Teknologi'
p7575
(lp7576
S'NOK'
p7577
aS'9.1167'
p7578
aS'966.30'
p7579
aS'8809'
p7580
aS'0.27'
p7581
aS'1156.82'
p7582
aS'10546'
p7583
aS'19.72'
p7584
aS'1737'
p7585
asS'SKAGEN Focus A'
p7586
(lp7587
S'NOK'
p7588
aS'67.7857'
p7589
aS'98.92'
p7590
aS'6705'
p7591
aS'-0.76'
p7592
aS'111.67'
p7593
aS'7570'
p7594
aS'12.89'
p7595
aS'864'
p7596
asS'Global X SuperIncome Preferred ETF'
p7597
(lp7598
S'USD'
p7599
aS'187'
p7600
aS'13.43'
p7601
aS'0.00'
p7602
aS'13.04'
p7603
aS'2438'
p7604
aS'21026'
p7605
aS'2.71'
p7606
aS'555'
p7607
asa(dp7608
S'KLP AksjeGlobal Indeks V'
p7609
(lp7610
S'NOK'
p7611
aS'8.4100'
p7612
aS'1062.32'
p7613
aS'8934'
p7614
aS'0.25'
p7615
aS'1158.45'
p7616
aS'9743'
p7617
aS'9.05'
p7618
aS'808'
p7619
asS'KLP AksjeFremvoksende Markeder Indeks II'
p7620
(lp7621
S'NOK'
p7622
aS'4.1213'
p7623
aS'1526.22'
p7624
aS'6290'
p7625
aS'0.16'
p7626
aS'1692.71'
p7627
aS'6976'
p7628
aS'10.91'
p7629
aS'686'
p7630
asS'Global X MSCI SuperDividend EAFE ETF'
p7631
(lp7632
S'USD'
p7633
aS'153'
p7634
aS'15.83'
p7635
aS'0.00'
p7636
aS'16.43'
p7637
aS'2514'
p7638
aS'21599'
p7639
aS'4.99'
p7640
aS'1027.16'
p7641
asS'Alfred Berg Gambak'
p7642
(lp7643
S'NOK'
p7644
aS'0.3154'
p7645
aS'23791.45'
p7646
aS'7504'
p7647
aS'0.12'
p7648
aS'25879.45'
p7649
aS'8162'
p7650
aS'8.78'
p7651
aS'659'
p7652
asS'Delphi Nordic'
p7653
(lp7654
S'NOK'
p7655
aS'0.1988'
p7656
aS'29845.66'
p7657
aS'5933'
p7658
aS'0.51'
p7659
aS'33295.43'
p7660
aS'6619'
p7661
aS'11.56'
p7662
aS'686'
p7663
asS'date'
p7664
(lp7665
F1491907345.611026
aS'11.04.17'
p7666
asS'Global X SuperIncome Preferred ETF'
p7667
(lp7668
S'USD'
p7669
aS'187'
p7670
aS'13.43'
p7671
aS'0.00'
p7672
aS'13.04'
p7673
aS'2438'
p7674
aS'20952'
p7675
aS'2.35'
p7676
aS'480'
p7677
asS'SKAGEN Focus A'
p7678
(lp7679
S'NOK'
p7680
aS'67.7857'
p7681
aS'98.92'
p7682
aS'6705'
p7683
aS'0.61'
p7684
aS'112.63'
p7685
aS'7635'
p7686
aS'13.86'
p7687
aS'929'
p7688
asS'DNB Teknologi'
p7689
(lp7690
S'NOK'
p7691
aS'9.1167'
p7692
aS'966.30'
p7693
aS'8809'
p7694
aS'0.12'
p7695
aS'1161.15'
p7696
aS'10586'
p7697
aS'20.16'
p7698
aS'1776'
p7699
asa(dp7700
S'KLP AksjeGlobal Indeks V'
p7701
(lp7702
S'NOK'
p7703
aS'8.4100'
p7704
aS'1062.32'
p7705
aS'8934'
p7706
aS'0.09'
p7707
aS'1159.45'
p7708
aS'9751'
p7709
aS'9.14'
p7710
aS'817'
p7711
asS'KLP AksjeFremvoksende Markeder Indeks II'
p7712
(lp7713
S'NOK'
p7714
aS'4.1213'
p7715
aS'1526.22'
p7716
aS'6290'
p7717
aS'-0.41'
p7718
aS'1685.76'
p7719
aS'6948'
p7720
aS'10.45'
p7721
aS'658'
p7722
asS'yield'
p7723
(dp7724
S'Global X SuperIncome Preferred ETF'
p7725
F99.879999999999995
sS'Global X MSCI SuperDividend EAFE ETF'
p7726
F62.82
ssS'Global X MSCI SuperDividend EAFE ETF'
p7727
(lp7728
S'USD'
p7729
aS'153'
p7730
aS'15.83'
p7731
aS'0.00'
p7732
aS'16.43'
p7733
aS'2514'
p7734
aS'21594'
p7735
aS'4.97'
p7736
aS'1022.16'
p7737
asS'Alfred Berg Gambak'
p7738
(lp7739
S'NOK'
p7740
aS'0.3154'
p7741
aS'23791.45'
p7742
aS'7504'
p7743
aS'-0.21'
p7744
aS'25825.09'
p7745
aS'8145'
p7746
aS'8.55'
p7747
aS'641'
p7748
asS'Delphi Nordic'
p7749
(lp7750
S'NOK'
p7751
aS'0.1988'
p7752
aS'29845.66'
p7753
aS'5933'
p7754
aS'0.05'
p7755
aS'33312.72'
p7756
aS'6623'
p7757
aS'11.62'
p7758
aS'689'
p7759
asS'date'
p7760
(lp7761
F1491991710.84919
aS'12.04.17'
p7762
asS'DNB Teknologi'
p7763
(lp7764
S'NOK'
p7765
aS'9.1167'
p7766
aS'966.30'
p7767
aS'8809'
p7768
aS'-1.03'
p7769
aS'1149.14'
p7770
aS'10476'
p7771
aS'18.92'
p7772
aS'1667'
p7773
asS'SKAGEN Focus A'
p7774
(lp7775
S'NOK'
p7776
aS'67.7857'
p7777
aS'98.92'
p7778
aS'6705'
p7779
aS'-0.82'
p7780
aS'111.70'
p7781
aS'7572'
p7782
aS'12.92'
p7783
aS'866'
p7784
asS'Global X SuperIncome Preferred ETF'
p7785
(lp7786
S'USD'
p7787
aS'187'
p7788
aS'13.43'
p7789
aS'0.00'
p7790
aS'12.98'
p7791
aS'2427'
p7792
aS'20851'
p7793
aS'1.85'
p7794
aS'379'
p7795
asa(dp7796
S'KLP AksjeGlobal Indeks V'
p7797
(lp7798
S'NOK'
p7799
aS'8.4100'
p7800
aS'1062.32'
p7801
aS'8934'
p7802
aS'-0.37'
p7803
aS'1155.11'
p7804
aS'9714'
p7805
aS'8.74'
p7806
aS'780'
p7807
asS'KLP AksjeFremvoksende Markeder Indeks II'
p7808
(lp7809
S'NOK'
p7810
aS'4.1213'
p7811
aS'1526.22'
p7812
aS'6290'
p7813
aS'-0.79'
p7814
aS'1672.39'
p7815
aS'6892'
p7816
aS'9.58'
p7817
aS'602'
p7818
asS'Global X MSCI SuperDividend EAFE ETF'
p7819
(lp7820
S'USD'
p7821
aS'153'
p7822
aS'15.83'
p7823
aS'0.00'
p7824
aS'16.41'
p7825
aS'2511'
p7826
aS'21450'
p7827
aS'4.27'
p7828
aS'878.16'
p7829
asS'Alfred Berg Gambak'
p7830
(lp7831
S'NOK'
p7832
aS'0.3154'
p7833
aS'23791.45'
p7834
aS'7504'
p7835
aS'-0.20'
p7836
aS'25774.14'
p7837
aS'8129'
p7838
aS'8.33'
p7839
aS'625'
p7840
asS'Delphi Nordic'
p7841
(lp7842
S'NOK'
p7843
aS'0.1988'
p7844
aS'29845.66'
p7845
aS'5933'
p7846
aS'0.25'
p7847
aS'33397.45'
p7848
aS'6639'
p7849
aS'11.90'
p7850
aS'706'
p7851
asS'date'
p7852
(lp7853
F1492508259.5192659
aS'18.04.17'
p7854
asS'DNB Teknologi'
p7855
(lp7856
S'NOK'
p7857
aS'9.1167'
p7858
aS'966.30'
p7859
aS'8809'
p7860
aS'-0.07'
p7861
aS'1148.29'
p7862
aS'10469'
p7863
aS'18.83'
p7864
aS'1659'
p7865
asS'SKAGEN Focus A'
p7866
(lp7867
S'NOK'
p7868
aS'67.7857'
p7869
aS'98.92'
p7870
aS'6705'
p7871
aS'0.24'
p7872
aS'111.97'
p7873
aS'7590'
p7874
aS'13.20'
p7875
aS'885'
p7876
asS'Global X SuperIncome Preferred ETF'
p7877
(lp7878
S'USD'
p7879
aS'187'
p7880
aS'13.43'
p7881
aS'0.00'
p7882
aS'13.00'
p7883
aS'2431'
p7884
aS'20769'
p7885
aS'1.45'
p7886
aS'297'
p7887
asa(dp7888
S'KLP AksjeGlobal Indeks V'
p7889
(lp7890
S'NOK'
p7891
aS'8.4100'
p7892
aS'1062.32'
p7893
aS'8934'
p7894
aS'0.00'
p7895
aS'1139.31'
p7896
aS'9582'
p7897
aS'7.25'
p7898
aS'648'
p7899
asS'KLP AksjeFremvoksende Markeder Indeks II'
p7900
(lp7901
S'NOK'
p7902
aS'4.1213'
p7903
aS'1526.22'
p7904
aS'6290'
p7905
aS'0.00'
p7906
aS'1665.89'
p7907
aS'6866'
p7908
aS'9.15'
p7909
aS'576'
p7910
asS'Global X MSCI SuperDividend EAFE ETF'
p7911
(lp7912
S'USD'
p7913
aS'153'
p7914
aS'15.83'
p7915
aS'0.00'
p7916
aS'16.37'
p7917
aS'2505'
p7918
aS'21474'
p7919
aS'4.38'
p7920
aS'902.16'
p7921
asS'Alfred Berg Gambak'
p7922
(lp7923
S'NOK'
p7924
aS'0.3154'
p7925
aS'23791.45'
p7926
aS'7504'
p7927
aS'-0.53'
p7928
aS'25481.35'
p7929
aS'8037'
p7930
aS'7.10'
p7931
aS'533'
p7932
asS'Delphi Nordic'
p7933
(lp7934
S'NOK'
p7935
aS'0.1988'
p7936
aS'29845.66'
p7937
aS'5933'
p7938
aS'0.69'
p7939
aS'33267.52'
p7940
aS'6614'
p7941
aS'11.47'
p7942
aS'680'
p7943
asS'date'
p7944
(lp7945
F1492691341.456888
aS'20.04.17'
p7946
asS'Global X SuperIncome Preferred ETF'
p7947
(lp7948
S'USD'
p7949
aS'187'
p7950
aS'13.43'
p7951
aS'0.00'
p7952
aS'12.98'
p7953
aS'2427'
p7954
aS'20811'
p7955
aS'1.66'
p7956
aS'339'
p7957
asS'SKAGEN Focus A'
p7958
(lp7959
S'NOK'
p7960
aS'67.7857'
p7961
aS'98.92'
p7962
aS'6705'
p7963
aS'0.36'
p7964
aS'110.51'
p7965
aS'7491'
p7966
aS'11.72'
p7967
aS'786'
p7968
asS'DNB Teknologi'
p7969
(lp7970
S'NOK'
p7971
aS'9.1167'
p7972
aS'966.30'
p7973
aS'8809'
p7974
aS'0.80'
p7975
aS'1151.77'
p7976
aS'10500'
p7977
aS'19.19'
p7978
aS'1691'
p7979
asa(dp7980
S'KLP AksjeGlobal Indeks V'
p7981
(lp7982
S'NOK'
p7983
aS'8.4100'
p7984
aS'1062.32'
p7985
aS'8934'
p7986
aS'1.03'
p7987
aS'1155.59'
p7988
aS'9719'
p7989
aS'8.78'
p7990
aS'784'
p7991
asS'KLP AksjeFremvoksende Markeder Indeks II'
p7992
(lp7993
S'NOK'
p7994
aS'4.1213'
p7995
aS'1526.22'
p7996
aS'6290'
p7997
aS'0.94'
p7998
aS'1681.97'
p7999
aS'6932'
p8000
aS'10.21'
p8001
aS'642'
p8002
asS'Global X MSCI SuperDividend EAFE ETF'
p8003
(lp8004
S'USD'
p8005
aS'153'
p8006
aS'15.83'
p8007
aS'0.00'
p8008
aS'16.47'
p8009
aS'2520'
p8010
aS'21889'
p8011
aS'6.40'
p8012
aS'1317.16'
p8013
asS'Alfred Berg Gambak'
p8014
(lp8015
S'NOK'
p8016
aS'0.3154'
p8017
aS'23791.45'
p8018
aS'7504'
p8019
aS'-0.23'
p8020
aS'25422.73'
p8021
aS'8018'
p8022
aS'6.86'
p8023
aS'515'
p8024
asS'Delphi Nordic'
p8025
(lp8026
S'NOK'
p8027
aS'0.1988'
p8028
aS'29845.66'
p8029
aS'5933'
p8030
aS'0.35'
p8031
aS'33589.33'
p8032
aS'6678'
p8033
aS'12.54'
p8034
aS'744'
p8035
asS'date'
p8036
(lp8037
F1492972018.5258
aS'23.04.17'
p8038
asS'DNB Teknologi'
p8039
(lp8040
S'NOK'
p8041
aS'9.1167'
p8042
aS'966.30'
p8043
aS'8809'
p8044
aS'0.76'
p8045
aS'1160.50'
p8046
aS'10580'
p8047
aS'20.10'
p8048
aS'1770'
p8049
asS'SKAGEN Focus A'
p8050
(lp8051
S'NOK'
p8052
aS'67.7857'
p8053
aS'98.92'
p8054
aS'6705'
p8055
aS'1.20'
p8056
aS'112.46'
p8057
aS'7623'
p8058
aS'13.69'
p8059
aS'918'
p8060
asS'Global X SuperIncome Preferred ETF'
p8061
(lp8062
S'USD'
p8063
aS'187'
p8064
aS'13.43'
p8065
aS'0.00'
p8066
aS'12.96'
p8067
aS'2424'
p8068
aS'21052'
p8069
aS'2.83'
p8070
aS'580'
p8071
asa(dp8072
S'KLP AksjeGlobal Indeks V'
p8073
(lp8074
S'NOK'
p8075
aS'8.4100'
p8076
aS'1062.32'
p8077
aS'8934'
p8078
aS'0.48'
p8079
aS'1172.42'
p8080
aS'9860'
p8081
aS'10.36'
p8082
aS'926'
p8083
asS'KLP AksjeFremvoksende Markeder Indeks II'
p8084
(lp8085
S'NOK'
p8086
aS'4.1213'
p8087
aS'1526.22'
p8088
aS'6290'
p8089
aS'1.08'
p8090
aS'1716.75'
p8091
aS'7075'
p8092
aS'12.48'
p8093
aS'785'
p8094
asS'Global X MSCI SuperDividend EAFE ETF'
p8095
(lp8096
S'USD'
p8097
aS'153'
p8098
aS'15.83'
p8099
aS'0.00'
p8100
aS'16.97'
p8101
aS'2596'
p8102
aS'22242'
p8103
aS'8.12'
p8104
aS'1670.16'
p8105
asS'Alfred Berg Gambak'
p8106
(lp8107
S'NOK'
p8108
aS'0.3154'
p8109
aS'23791.45'
p8110
aS'7504'
p8111
aS'1.69'
p8112
aS'26096.76'
p8113
aS'8231'
p8114
aS'9.69'
p8115
aS'727'
p8116
asS'Delphi Nordic'
p8117
(lp8118
S'NOK'
p8119
aS'0.1988'
p8120
aS'29845.66'
p8121
aS'5933'
p8122
aS'0.83'
p8123
aS'34783.53'
p8124
aS'6915'
p8125
aS'16.54'
p8126
aS'982'
p8127
asS'date'
p8128
(lp8129
F1493287308.5296831
aS'27.04.17'
p8130
asS'Global X SuperIncome Preferred ETF'
p8131
(lp8132
S'USD'
p8133
aS'187'
p8134
aS'13.43'
p8135
aS'0.00'
p8136
aS'13.01'
p8137
aS'2433'
p8138
aS'20841'
p8139
aS'1.80'
p8140
aS'369'
p8141
asS'SKAGEN Focus A'
p8142
(lp8143
S'NOK'
p8144
aS'67.7857'
p8145
aS'98.92'
p8146
aS'6705'
p8147
aS'0.62'
p8148
aS'114.23'
p8149
aS'7743'
p8150
aS'15.48'
p8151
aS'1038'
p8152
asS'DNB Teknologi'
p8153
(lp8154
S'NOK'
p8155
aS'9.1167'
p8156
aS'966.30'
p8157
aS'8809'
p8158
aS'0.42'
p8159
aS'1185.91'
p8160
aS'10812'
p8161
aS'22.73'
p8162
aS'2002'
p8163
asa(dp8164
S'KLP AksjeGlobal Indeks V'
p8165
(lp8166
S'NOK'
p8167
aS'8.4100'
p8168
aS'1062.32'
p8169
aS'8934'
p8170
aS'0.49'
p8171
aS'1178.21'
p8172
aS'9909'
p8173
aS'10.91'
p8174
aS'975'
p8175
asS'KLP AksjeFremvoksende Markeder Indeks II'
p8176
(lp8177
S'NOK'
p8178
aS'4.1213'
p8179
aS'1526.22'
p8180
aS'6290'
p8181
aS'0.46'
p8182
aS'1724.70'
p8183
aS'7108'
p8184
aS'13.01'
p8185
aS'818'
p8186
asS'Global X MSCI SuperDividend EAFE ETF'
p8187
(lp8188
S'USD'
p8189
aS'153'
p8190
aS'15.83'
p8191
aS'0.00'
p8192
aS'16.97'
p8193
aS'2596'
p8194
aS'22166'
p8195
aS'7.75'
p8196
aS'1594.16'
p8197
asS'Alfred Berg Gambak'
p8198
(lp8199
S'NOK'
p8200
aS'0.3154'
p8201
aS'23791.45'
p8202
aS'7504'
p8203
aS'0.01'
p8204
aS'26098.10'
p8205
aS'8231'
p8206
aS'9.70'
p8207
aS'728'
p8208
asS'Delphi Nordic'
p8209
(lp8210
S'NOK'
p8211
aS'0.1988'
p8212
aS'29845.66'
p8213
aS'5933'
p8214
aS'0.27'
p8215
aS'34876.30'
p8216
aS'6933'
p8217
aS'16.86'
p8218
aS'1000'
p8219
asS'date'
p8220
(lp8221
F1493380257.9899371
aS'28.04.17'
p8222
asS'DNB Teknologi'
p8223
(lp8224
S'NOK'
p8225
aS'9.1167'
p8226
aS'966.30'
p8227
aS'8809'
p8228
aS'0.32'
p8229
aS'1189.69'
p8230
aS'10846'
p8231
aS'23.12'
p8232
aS'2037'
p8233
asS'SKAGEN Focus A'
p8234
(lp8235
S'NOK'
p8236
aS'67.7857'
p8237
aS'98.92'
p8238
aS'6705'
p8239
aS'-0.12'
p8240
aS'114.09'
p8241
aS'7734'
p8242
aS'15.34'
p8243
aS'1029'
p8244
asS'Global X SuperIncome Preferred ETF'
p8245
(lp8246
S'USD'
p8247
aS'187'
p8248
aS'13.43'
p8249
aS'0.00'
p8250
aS'13.02'
p8251
aS'2435'
p8252
aS'20786'
p8253
aS'1.54'
p8254
aS'314'
p8255
asa(dp8256
S'KLP AksjeGlobal Indeks V'
p8257
(lp8258
S'NOK'
p8259
aS'8.4100'
p8260
aS'1062.32'
p8261
aS'8934'
p8262
aS'0.05'
p8263
aS'1178.79'
p8264
aS'9914'
p8265
aS'10.96'
p8266
aS'980'
p8267
asS'KLP AksjeFremvoksende Markeder Indeks II'
p8268
(lp8269
S'NOK'
p8270
aS'4.1213'
p8271
aS'1526.22'
p8272
aS'6290'
p8273
aS'-0.17'
p8274
aS'1721.70'
p8275
aS'7096'
p8276
aS'12.81'
p8277
aS'806'
p8278
asS'Global X MSCI SuperDividend EAFE ETF'
p8279
(lp8280
S'USD'
p8281
aS'153'
p8282
aS'15.83'
p8283
aS'0.00'
p8284
aS'16.90'
p8285
aS'2586'
p8286
aS'22223'
p8287
aS'8.03'
p8288
aS'1651.16'
p8289
asS'Alfred Berg Gambak'
p8290
(lp8291
S'NOK'
p8292
aS'0.3154'
p8293
aS'23791.45'
p8294
aS'7504'
p8295
aS'0.74'
p8296
aS'26292.54'
p8297
aS'8293'
p8298
aS'10.51'
p8299
aS'789'
p8300
asS'Delphi Nordic'
p8301
(lp8302
S'NOK'
p8303
aS'0.1988'
p8304
aS'29845.66'
p8305
aS'5933'
p8306
aS'-0.48'
p8307
aS'34708.76'
p8308
aS'6900'
p8309
aS'16.29'
p8310
aS'967'
p8311
asS'date'
p8312
(lp8313
F1493719787.3908219
aS'02.05.17'
p8314
asS'Global X SuperIncome Preferred ETF'
p8315
(lp8316
S'USD'
p8317
aS'187'
p8318
aS'13.43'
p8319
aS'0.00'
p8320
aS'12.95'
p8321
aS'2422'
p8322
aS'20813'
p8323
aS'1.67'
p8324
aS'341'
p8325
asS'SKAGEN Focus A'
p8326
(lp8327
S'NOK'
p8328
aS'67.7857'
p8329
aS'98.92'
p8330
aS'6705'
p8331
aS'-0.83'
p8332
aS'113.15'
p8333
aS'7670'
p8334
aS'14.39'
p8335
aS'965'
p8336
asS'DNB Teknologi'
p8337
(lp8338
S'NOK'
p8339
aS'9.1167'
p8340
aS'966.30'
p8341
aS'8809'
p8342
aS'-0.10'
p8343
aS'1188.49'
p8344
aS'10835'
p8345
aS'22.99'
p8346
aS'2026'
p8347
asa(dp8348
S'KLP AksjeGlobal Indeks V'
p8349
(lp8350
S'NOK'
p8351
aS'8.7682'
p8352
aS'1066.82'
p8353
aS'9354'
p8354
aS'0.00'
p8355
aS'1182.75'
p8356
aS'10371'
p8357
aS'10.87'
p8358
aS'1017'
p8359
asS'KLP AksjeFremvoksende Markeder Indeks II'
p8360
(lp8361
S'NOK'
p8362
aS'4.1213'
p8363
aS'1526.22'
p8364
aS'6290'
p8365
aS'0.00'
p8366
aS'1737.74'
p8367
aS'7162'
p8368
aS'13.86'
p8369
aS'872'
p8370
asS'Global X MSCI SuperDividend EAFE ETF'
p8371
(lp8372
S'USD'
p8373
aS'153'
p8374
aS'15.83'
p8375
aS'-0.53'
p8376
aS'16.94'
p8377
aS'2592'
p8378
aS'22353'
p8379
aS'8.66'
p8380
aS'1781.16'
p8381
asS'Alfred Berg Gambak'
p8382
(lp8383
S'NOK'
p8384
aS'0.3306'
p8385
aS'23907.51'
p8386
aS'7904'
p8387
aS'0.00'
p8388
aS'26706.14'
p8389
aS'8829'
p8390
aS'11.71'
p8391
aS'925'
p8392
asS'Delphi Nordic'
p8393
(lp8394
S'NOK'
p8395
aS'0.2045'
p8396
aS'29985.22'
p8397
aS'6132'
p8398
aS'0.00'
p8399
aS'34852.81'
p8400
aS'7127'
p8401
aS'16.23'
p8402
aS'995'
p8403
asS'date'
p8404
(lp8405
F1493823639.5159011
aS'03.05.17'
p8406
asS'DNB Teknologi'
p8407
(lp8408
S'NOK'
p8409
aS'9.5879'
p8410
aS'977.22'
p8411
aS'9369'
p8412
aS'0.00'
p8413
aS'1205.00'
p8414
aS'11553'
p8415
aS'23.31'
p8416
aS'2184'
p8417
asS'SKAGEN Focus A'
p8418
(lp8419
S'NOK'
p8420
aS'68.8462'
p8421
aS'99.14'
p8422
aS'6825'
p8423
aS'0.00'
p8424
aS'114.80'
p8425
aS'7903'
p8426
aS'15.80'
p8427
aS'1078'
p8428
asS'Global X SuperIncome Preferred ETF'
p8429
(lp8430
S'USD'
p8431
aS'187'
p8432
aS'13.43'
p8433
aS'-0.08'
p8434
aS'12.94'
p8435
aS'2420'
p8436
aS'20869'
p8437
aS'1.94'
p8438
aS'397'
p8439
asa(dp8440
S'KLP AksjeGlobal Indeks V'
p8441
(lp8442
S'NOK'
p8443
aS'8.7682'
p8444
aS'1066.82'
p8445
aS'9354'
p8446
aS'0.10'
p8447
aS'1183.94'
p8448
aS'10381'
p8449
aS'10.98'
p8450
aS'1027'
p8451
asS'KLP AksjeFremvoksende Markeder Indeks II'
p8452
(lp8453
S'NOK'
p8454
aS'4.2939'
p8455
aS'1534.74'
p8456
aS'6590'
p8457
aS'-0.02'
p8458
aS'1737.32'
p8459
aS'7460'
p8460
aS'13.20'
p8461
aS'870'
p8462
asS'Global X MSCI SuperDividend EAFE ETF'
p8463
(lp8464
S'USD'
p8465
aS'153'
p8466
aS'15.83'
p8467
aS'0.00'
p8468
aS'16.92'
p8469
aS'2589'
p8470
aS'22445'
p8471
aS'9.11'
p8472
aS'1873.16'
p8473
asS'Alfred Berg Gambak'
p8474
(lp8475
S'NOK'
p8476
aS'0.3306'
p8477
aS'23907.51'
p8478
aS'7904'
p8479
aS'-1.00'
p8480
aS'26439.50'
p8481
aS'8741'
p8482
aS'10.59'
p8483
aS'837'
p8484
asS'Delphi Nordic'
p8485
(lp8486
S'NOK'
p8487
aS'0.2045'
p8488
aS'29991.77'
p8489
aS'6133'
p8490
aS'-0.28'
p8491
aS'34756.61'
p8492
aS'7108'
p8493
aS'15.89'
p8494
aS'974'
p8495
asS'date'
p8496
(lp8497
F1493910766.7000051
aS'04.05.17'
p8498
asS'Global X SuperIncome Preferred ETF'
p8499
(lp8500
S'USD'
p8501
aS'187'
p8502
aS'13.43'
p8503
aS'-0.31'
p8504
aS'12.88'
p8505
aS'2409'
p8506
aS'20883'
p8507
aS'2.01'
p8508
aS'411'
p8509
asS'SKAGEN Focus A'
p8510
(lp8511
S'NOK'
p8512
aS'68.8462'
p8513
aS'99.14'
p8514
aS'6825'
p8515
aS'-0.28'
p8516
aS'114.48'
p8517
aS'7881'
p8518
aS'15.47'
p8519
aS'1056'
p8520
asS'DNB Teknologi'
p8521
(lp8522
S'NOK'
p8523
aS'9.5879'
p8524
aS'977.21'
p8525
aS'9369'
p8526
aS'-0.05'
p8527
aS'1204.43'
p8528
aS'11548'
p8529
aS'23.25'
p8530
aS'2178'
p8531
asa(dp8532
S'KLP AksjeGlobal Indeks V'
p8533
(lp8534
S'NOK'
p8535
aS'8.7682'
p8536
aS'1066.82'
p8537
aS'9354'
p8538
aS'0.51'
p8539
aS'1195.57'
p8540
aS'10483'
p8541
aS'12.07'
p8542
aS'1129'
p8543
asS'KLP AksjeFremvoksende Markeder Indeks II'
p8544
(lp8545
S'NOK'
p8546
aS'4.2939'
p8547
aS'1534.74'
p8548
aS'6590'
p8549
aS'1.19'
p8550
aS'1739.61'
p8551
aS'7470'
p8552
aS'13.35'
p8553
aS'880'
p8554
asS'Global X MSCI SuperDividend EAFE ETF'
p8555
(lp8556
S'USD'
p8557
aS'153'
p8558
aS'15.83'
p8559
aS'0.00'
p8560
aS'17.13'
p8561
aS'2621'
p8562
aS'22784'
p8563
aS'10.76'
p8564
aS'2212.16'
p8565
asS'Alfred Berg Gambak'
p8566
(lp8567
S'NOK'
p8568
aS'0.3306'
p8569
aS'23907.51'
p8570
aS'7904'
p8571
aS'0.01'
p8572
aS'26555.45'
p8573
aS'8779'
p8574
aS'11.08'
p8575
aS'875'
p8576
asS'Delphi Nordic'
p8577
(lp8578
S'NOK'
p8579
aS'0.2045'
p8580
aS'29991.77'
p8581
aS'6133'
p8582
aS'0.38'
p8583
aS'35207.02'
p8584
aS'7200'
p8585
aS'17.39'
p8586
aS'1067'
p8587
asS'date'
p8588
(lp8589
F1494376901.8681009
aS'10.05.17'
p8590
asS'DNB Teknologi'
p8591
(lp8592
S'NOK'
p8593
aS'9.5879'
p8594
aS'977.21'
p8595
aS'9369'
p8596
aS'0.88'
p8597
aS'1223.56'
p8598
aS'11731'
p8599
aS'25.21'
p8600
aS'2362'
p8601
asS'SKAGEN Focus A'
p8602
(lp8603
S'NOK'
p8604
aS'68.8462'
p8605
aS'99.14'
p8606
aS'6825'
p8607
aS'0.81'
p8608
aS'116.62'
p8609
aS'8029'
p8610
aS'17.63'
p8611
aS'1203'
p8612
asS'Global X SuperIncome Preferred ETF'
p8613
(lp8614
S'USD'
p8615
aS'187'
p8616
aS'13.43'
p8617
aS'0.00'
p8618
aS'12.85'
p8619
aS'2403'
p8620
aS'20890'
p8621
aS'2.04'
p8622
aS'418'
p8623
asa(dp8624
S'KLP AksjeGlobal Indeks V'
p8625
(lp8626
S'NOK'
p8627
aS'8.7682'
p8628
aS'1066.82'
p8629
aS'9354'
p8630
aS'0.15'
p8631
aS'1197.33'
p8632
aS'10498'
p8633
aS'12.23'
p8634
aS'1144'
p8635
asS'KLP AksjeFremvoksende Markeder Indeks II'
p8636
(lp8637
S'NOK'
p8638
aS'4.2939'
p8639
aS'1534.74'
p8640
aS'6590'
p8641
aS'0.94'
p8642
aS'1755.91'
p8643
aS'7540'
p8644
aS'14.41'
p8645
aS'950'
p8646
asS'Global X MSCI SuperDividend EAFE ETF'
p8647
(lp8648
S'USD'
p8649
aS'153'
p8650
aS'15.83'
p8651
aS'0.47'
p8652
aS'17.21'
p8653
aS'2633'
p8654
aS'22712'
p8655
aS'10.40'
p8656
aS'2140.16'
p8657
asS'Alfred Berg Gambak'
p8658
(lp8659
S'NOK'
p8660
aS'0.3306'
p8661
aS'23907.51'
p8662
aS'7904'
p8663
aS'0.71'
p8664
aS'26744.46'
p8665
aS'8842'
p8666
aS'11.87'
p8667
aS'938'
p8668
asS'Delphi Nordic'
p8669
(lp8670
S'NOK'
p8671
aS'0.2045'
p8672
aS'29991.77'
p8673
aS'6133'
p8674
aS'-0.39'
p8675
aS'35069.25'
p8676
aS'7172'
p8677
aS'16.93'
p8678
aS'1038'
p8679
asS'date'
p8680
(lp8681
F1494437662.1391621
aS'10.05.17'
p8682
asS'Global X SuperIncome Preferred ETF'
p8683
(lp8684
S'USD'
p8685
aS'187'
p8686
aS'13.43'
p8687
aS'0.00'
p8688
aS'12.85'
p8689
aS'2403'
p8690
aS'20727'
p8691
aS'1.25'
p8692
aS'255'
p8693
asS'SKAGEN Focus A'
p8694
(lp8695
S'NOK'
p8696
aS'68.8462'
p8697
aS'99.14'
p8698
aS'6825'
p8699
aS'-0.02'
p8700
aS'117.17'
p8701
aS'8067'
p8702
aS'18.19'
p8703
aS'1241'
p8704
asS'DNB Teknologi'
p8705
(lp8706
S'NOK'
p8707
aS'9.5879'
p8708
aS'977.21'
p8709
aS'9369'
p8710
aS'0.58'
p8711
aS'1230.66'
p8712
aS'11799'
p8713
aS'25.94'
p8714
aS'2430'
p8715
asa(dp8716
S'KLP AksjeGlobal Indeks V'
p8717
(lp8718
S'NOK'
p8719
aS'8.7682'
p8720
aS'1066.82'
p8721
aS'9354'
p8722
aS'-0.47'
p8723
aS'1186.33'
p8724
aS'10402'
p8725
aS'11.20'
p8726
aS'1048'
p8727
asS'KLP AksjeFremvoksende Markeder Indeks II'
p8728
(lp8729
S'NOK'
p8730
aS'4.2939'
p8731
aS'1534.74'
p8732
aS'6590'
p8733
aS'0.26'
p8734
aS'1757.46'
p8735
aS'7546'
p8736
aS'14.51'
p8737
aS'956'
p8738
asS'Global X MSCI SuperDividend EAFE ETF'
p8739
(lp8740
S'USD'
p8741
aS'153'
p8742
aS'15.83'
p8743
aS'0.00'
p8744
aS'17.18'
p8745
aS'2629'
p8746
aS'22504'
p8747
aS'9.39'
p8748
aS'1932.16'
p8749
asS'Alfred Berg Gambak'
p8750
(lp8751
S'NOK'
p8752
aS'0.3306'
p8753
aS'23907.51'
p8754
aS'7904'
p8755
aS'-0.27'
p8756
aS'26519.58'
p8757
aS'8767'
p8758
aS'10.93'
p8759
aS'864'
p8760
asS'Delphi Nordic'
p8761
(lp8762
S'NOK'
p8763
aS'0.2045'
p8764
aS'29991.77'
p8765
aS'6133'
p8766
aS'-0.18'
p8767
aS'34758.69'
p8768
aS'7108'
p8769
aS'15.89'
p8770
aS'975'
p8771
asS'date'
p8772
(lp8773
F1494721425.954428
aS'14.05.17'
p8774
asS'DNB Teknologi'
p8775
(lp8776
S'NOK'
p8777
aS'9.5879'
p8778
aS'977.21'
p8779
aS'9369'
p8780
aS'-0.67'
p8781
aS'1212.44'
p8782
aS'11625'
p8783
aS'24.07'
p8784
aS'2255'
p8785
asS'SKAGEN Focus A'
p8786
(lp8787
S'NOK'
p8788
aS'68.8462'
p8789
aS'99.14'
p8790
aS'6825'
p8791
aS'0.28'
p8792
aS'116.98'
p8793
aS'8054'
p8794
aS'18.00'
p8795
aS'1228'
p8796
asS'Global X SuperIncome Preferred ETF'
p8797
(lp8798
S'USD'
p8799
aS'187'
p8800
aS'13.43'
p8801
aS'0.00'
p8802
aS'12.82'
p8803
aS'2397'
p8804
aS'20525'
p8805
aS'0.26'
p8806
aS'53'
p8807
asa(dp8808
S'KLP AksjeGlobal Indeks V'
p8809
(lp8810
S'NOK'
p8811
aS'8.7682'
p8812
aS'1066.82'
p8813
aS'9354'
p8814
aS'-0.01'
p8815
aS'1186.20'
p8816
aS'10401'
p8817
aS'11.19'
p8818
aS'1047'
p8819
asS'KLP AksjeFremvoksende Markeder Indeks II'
p8820
(lp8821
S'NOK'
p8822
aS'4.2939'
p8823
aS'1534.74'
p8824
aS'6590'
p8825
aS'0.07'
p8826
aS'1758.77'
p8827
aS'7552'
p8828
aS'14.60'
p8829
aS'962'
p8830
asS'Global X MSCI SuperDividend EAFE ETF'
p8831
(lp8832
S'USD'
p8833
aS'153'
p8834
aS'15.83'
p8835
aS'0.00'
p8836
aS'17.29'
p8837
aS'2645'
p8838
aS'22613'
p8839
aS'9.92'
p8840
aS'2041.16'
p8841
asS'Alfred Berg Gambak'
p8842
(lp8843
S'NOK'
p8844
aS'0.3306'
p8845
aS'23907.51'
p8846
aS'7904'
p8847
aS'0.03'
p8848
aS'26528.71'
p8849
aS'8770'
p8850
aS'10.96'
p8851
aS'867'
p8852
asS'Delphi Nordic'
p8853
(lp8854
S'NOK'
p8855
aS'0.2045'
p8856
aS'29991.77'
p8857
aS'6133'
p8858
aS'0.13'
p8859
aS'34802.21'
p8860
aS'7117'
p8861
aS'16.04'
p8862
aS'984'
p8863
asS'date'
p8864
(lp8865
F1494927078.978276
aS'16.05.17'
p8866
asS'Global X SuperIncome Preferred ETF'
p8867
(lp8868
S'USD'
p8869
aS'187'
p8870
aS'13.43'
p8871
aS'0.00'
p8872
aS'12.83'
p8873
aS'2399'
p8874
aS'20509'
p8875
aS'0.18'
p8876
aS'38'
p8877
asS'SKAGEN Focus A'
p8878
(lp8879
S'NOK'
p8880
aS'68.8462'
p8881
aS'99.14'
p8882
aS'6825'
p8883
aS'-0.12'
p8884
aS'116.84'
p8885
aS'8044'
p8886
aS'17.86'
p8887
aS'1219'
p8888
asS'DNB Teknologi'
p8889
(lp8890
S'NOK'
p8891
aS'9.5879'
p8892
aS'977.21'
p8893
aS'9369'
p8894
aS'-0.01'
p8895
aS'1211.97'
p8896
aS'11620'
p8897
aS'24.02'
p8898
aS'2251'
p8899
asa(dp8900
S'KLP AksjeGlobal Indeks V'
p8901
(lp8902
S'NOK'
p8903
aS'8.7682'
p8904
aS'1066.82'
p8905
aS'9354'
p8906
aS'-0.46'
p8907
aS'1180.65'
p8908
aS'10352'
p8909
aS'10.67'
p8910
aS'998'
p8911
asS'KLP AksjeFremvoksende Markeder Indeks II'
p8912
(lp8913
S'NOK'
p8914
aS'4.2939'
p8915
aS'1534.74'
p8916
aS'6590'
p8917
aS'-0.25'
p8918
aS'1759.34'
p8919
aS'7554'
p8920
aS'14.63'
p8921
aS'964'
p8922
asS'Global X MSCI SuperDividend EAFE ETF'
p8923
(lp8924
S'USD'
p8925
aS'153'
p8926
aS'15.83'
p8927
aS'0.00'
p8928
aS'17.26'
p8929
aS'2641'
p8930
aS'22312'
p8931
aS'8.46'
p8932
aS'1741'
p8933
asS'Alfred Berg Gambak'
p8934
(lp8935
S'NOK'
p8936
aS'0.3306'
p8937
aS'23907.51'
p8938
aS'7904'
p8939
aS'0.79'
p8940
aS'26963.01'
p8941
aS'8914'
p8942
aS'12.78'
p8943
aS'1010'
p8944
asS'Delphi Nordic'
p8945
(lp8946
S'NOK'
p8947
aS'0.2045'
p8948
aS'29991.77'
p8949
aS'6133'
p8950
aS'0.13'
p8951
aS'34847.31'
p8952
aS'7126'
p8953
aS'16.19'
p8954
aS'993'
p8955
asS'date'
p8956
(lp8957
F1495114333.897891
aS'18.05.17'
p8958
asS'Global X SuperIncome Preferred ETF'
p8959
(lp8960
S'USD'
p8961
aS'187'
p8962
aS'13.43'
p8963
aS'-0.08'
p8964
aS'12.79'
p8965
aS'2392'
p8966
aS'20208'
p8967
aS'-1.29'
p8968
aS'-263'
p8969
asS'SKAGEN Focus A'
p8970
(lp8971
S'NOK'
p8972
aS'68.8462'
p8973
aS'99.14'
p8974
aS'6825'
p8975
aS'-0.01'
p8976
aS'116.83'
p8977
aS'8043'
p8978
aS'17.84'
p8979
aS'1218'
p8980
asS'DNB Teknologi'
p8981
(lp8982
S'NOK'
p8983
aS'9.5879'
p8984
aS'977.21'
p8985
aS'9369'
p8986
aS'-0.24'
p8987
aS'1209.02'
p8988
aS'11592'
p8989
aS'23.72'
p8990
aS'2223'
p8991
asa(dp8992
S'KLP AksjeGlobal Indeks V'
p8993
(lp8994
S'NOK'
p8995
aS'8.7682'
p8996
aS'1066.82'
p8997
aS'9354'
p8998
aS'0.00'
p8999
aS'1159.17'
p9000
aS'10164'
p9001
aS'8.66'
p9002
aS'810'
p9003
asS'KLP AksjeFremvoksende Markeder Indeks II'
p9004
(lp9005
S'NOK'
p9006
aS'4.2939'
p9007
aS'1534.74'
p9008
aS'6590'
p9009
aS'0.00'
p9010
aS'1706.84'
p9011
aS'7329'
p9012
aS'11.21'
p9013
aS'739'
p9014
asS'Global X MSCI SuperDividend EAFE ETF'
p9015
(lp9016
S'USD'
p9017
aS'153'
p9018
aS'15.83'
p9019
aS'1.51'
p9020
aS'17.50'
p9021
aS'2678'
p9022
aS'22421'
p9023
aS'8.99'
p9024
aS'1849'
p9025
asS'Alfred Berg Gambak'
p9026
(lp9027
S'NOK'
p9028
aS'0.3306'
p9029
aS'23907.51'
p9030
aS'7904'
p9031
aS'0.00'
p9032
aS'26256.81'
p9033
aS'8681'
p9034
aS'9.83'
p9035
aS'777'
p9036
asS'Delphi Nordic'
p9037
(lp9038
S'NOK'
p9039
aS'0.2045'
p9040
aS'29991.77'
p9041
aS'6133'
p9042
aS'1.12'
p9043
aS'34338.43'
p9044
aS'7022'
p9045
aS'14.49'
p9046
aS'889'
p9047
asS'date'
p9048
(lp9049
F1495227986.8653541
aS'19.05.17'
p9050
asS'DNB Teknologi'
p9051
(lp9052
S'NOK'
p9053
aS'9.5879'
p9054
aS'977.21'
p9055
aS'9369'
p9056
aS'0.00'
p9057
aS'1180.08'
p9058
aS'11315'
p9059
aS'20.76'
p9060
aS'1945'
p9061
asS'SKAGEN Focus A'
p9062
(lp9063
S'NOK'
p9064
aS'68.8462'
p9065
aS'99.14'
p9066
aS'6825'
p9067
aS'0.61'
p9068
aS'113.60'
p9069
aS'7821'
p9070
aS'14.59'
p9071
aS'996'
p9072
asS'Global X SuperIncome Preferred ETF'
p9073
(lp9074
S'USD'
p9075
aS'187'
p9076
aS'13.43'
p9077
aS'0.16'
p9078
aS'12.81'
p9079
aS'2395'
p9080
aS'20059'
p9081
aS'-2.01'
p9082
aS'-412'
p9083
asa(dp9084
S'KLP AksjeGlobal Indeks V'
p9085
(lp9086
S'NOK'
p9087
aS'8.7682'
p9088
aS'1066.82'
p9089
aS'9354'
p9090
aS'0.16'
p9091
aS'1160.65'
p9092
aS'10177'
p9093
aS'8.80'
p9094
aS'823'
p9095
asS'KLP AksjeFremvoksende Markeder Indeks II'
p9096
(lp9097
S'NOK'
p9098
aS'4.2939'
p9099
aS'1534.74'
p9100
aS'6590'
p9101
aS'0.41'
p9102
aS'1713.02'
p9103
aS'7356'
p9104
aS'11.62'
p9105
aS'766'
p9106
asS'Global X MSCI SuperDividend EAFE ETF'
p9107
(lp9108
S'USD'
p9109
aS'153'
p9110
aS'15.83'
p9111
aS'0.17'
p9112
aS'17.61'
p9113
aS'2694'
p9114
aS'22570'
p9115
aS'9.71'
p9116
aS'1998'
p9117
asS'Alfred Berg Gambak'
p9118
(lp9119
S'NOK'
p9120
aS'0.3306'
p9121
aS'23907.51'
p9122
aS'7904'
p9123
aS'-0.15'
p9124
aS'26632.32'
p9125
aS'8805'
p9126
aS'11.40'
p9127
aS'901'
p9128
asS'Delphi Nordic'
p9129
(lp9130
S'NOK'
p9131
aS'0.2045'
p9132
aS'29991.77'
p9133
aS'6133'
p9134
aS'0.36'
p9135
aS'34453.34'
p9136
aS'7046'
p9137
aS'14.88'
p9138
aS'912'
p9139
asS'date'
p9140
(lp9141
F1495575263.9574709
aS'24.05.17'
p9142
asS'Global X SuperIncome Preferred ETF'
p9143
(lp9144
S'USD'
p9145
aS'187'
p9146
aS'13.43'
p9147
aS'0.08'
p9148
aS'12.86'
p9149
aS'2405'
p9150
aS'20144'
p9151
aS'-1.60'
p9152
aS'-327'
p9153
asS'SKAGEN Focus A'
p9154
(lp9155
S'NOK'
p9156
aS'68.8462'
p9157
aS'99.14'
p9158
aS'6825'
p9159
aS'-0.91'
p9160
aS'112.11'
p9161
aS'7718'
p9162
aS'13.08'
p9163
aS'893'
p9164
asS'DNB Teknologi'
p9165
(lp9166
S'NOK'
p9167
aS'9.5879'
p9168
aS'977.21'
p9169
aS'9369'
p9170
aS'0.41'
p9171
aS'1185.94'
p9172
aS'11371'
p9173
aS'21.36'
p9174
aS'2001'
p9175
asa(dp9176
S'KLP AksjeGlobal Indeks V'
p9177
(lp9178
S'NOK'
p9179
aS'8.7682'
p9180
aS'1066.82'
p9181
aS'9354'
p9182
aS'0.50'
p9183
aS'1168.80'
p9184
aS'10248'
p9185
aS'9.56'
p9186
aS'894'
p9187
asS'KLP AksjeFremvoksende Markeder Indeks II'
p9188
(lp9189
S'NOK'
p9190
aS'4.2939'
p9191
aS'1534.74'
p9192
aS'6590'
p9193
aS'0.49'
p9194
aS'1724.33'
p9195
aS'7404'
p9196
aS'12.35'
p9197
aS'814'
p9198
asS'Global X MSCI SuperDividend EAFE ETF'
p9199
(lp9200
S'USD'
p9201
aS'153'
p9202
aS'15.83'
p9203
aS'0.00'
p9204
aS'17.47'
p9205
aS'2673'
p9206
aS'22427'
p9207
aS'9.02'
p9208
aS'1855'
p9209
asS'Alfred Berg Gambak'
p9210
(lp9211
S'NOK'
p9212
aS'0.3306'
p9213
aS'23907.51'
p9214
aS'7904'
p9215
aS'0.29'
p9216
aS'26644.96'
p9217
aS'8809'
p9218
aS'11.45'
p9219
aS'905'
p9220
asS'Delphi Nordic'
p9221
(lp9222
S'NOK'
p9223
aS'0.2045'
p9224
aS'29991.77'
p9225
aS'6133'
p9226
aS'0.22'
p9227
aS'34530.45'
p9228
aS'7061'
p9229
aS'15.13'
p9230
aS'928'
p9231
asS'date'
p9232
(lp9233
F1495804090.9846289
aS'26.05.17'
p9234
asS'DNB Teknologi'
p9235
(lp9236
S'NOK'
p9237
aS'9.5879'
p9238
aS'977.21'
p9239
aS'9369'
p9240
aS'0.91'
p9241
aS'1204.19'
p9242
aS'11546'
p9243
aS'23.23'
p9244
aS'2176'
p9245
asS'SKAGEN Focus A'
p9246
(lp9247
S'NOK'
p9248
aS'68.8462'
p9249
aS'99.14'
p9250
aS'6825'
p9251
aS'1.38'
p9252
aS'113.65'
p9253
aS'7825'
p9254
aS'14.64'
p9255
aS'999'
p9256
asS'Global X SuperIncome Preferred ETF'
p9257
(lp9258
S'USD'
p9259
aS'187'
p9260
aS'13.43'
p9261
aS'0.00'
p9262
aS'12.85'
p9263
aS'2403'
p9264
aS'20162'
p9265
aS'-1.51'
p9266
aS'-310'
p9267
asa(dp9268
S'KLP AksjeGlobal Indeks V'
p9269
(lp9270
S'NOK'
p9271
aS'8.7682'
p9272
aS'1066.82'
p9273
aS'9354'
p9274
aS'0.00'
p9275
aS'1171.80'
p9276
aS'10275'
p9277
aS'9.84'
p9278
aS'921'
p9279
asS'KLP AksjeFremvoksende Markeder Indeks II'
p9280
(lp9281
S'NOK'
p9282
aS'4.2939'
p9283
aS'1534.74'
p9284
aS'6590'
p9285
aS'0.00'
p9286
aS'1746.13'
p9287
aS'7498'
p9288
aS'13.77'
p9289
aS'908'
p9290
asS'Global X MSCI SuperDividend EAFE ETF'
p9291
(lp9292
S'USD'
p9293
aS'153'
p9294
aS'15.83'
p9295
aS'0.00'
p9296
aS'17.37'
p9297
aS'2658'
p9298
aS'22359'
p9299
aS'8.69'
p9300
aS'1787'
p9301
asS'Alfred Berg Gambak'
p9302
(lp9303
S'NOK'
p9304
aS'0.3306'
p9305
aS'23907.51'
p9306
aS'7904'
p9307
aS'0.00'
p9308
aS'26345.54'
p9309
aS'8710'
p9310
aS'10.20'
p9311
aS'806'
p9312
asS'Delphi Nordic'
p9313
(lp9314
S'NOK'
p9315
aS'0.2045'
p9316
aS'29991.77'
p9317
aS'6133'
p9318
aS'0.11'
p9319
aS'34515.41'
p9320
aS'7058'
p9321
aS'15.08'
p9322
aS'925'
p9323
asS'date'
p9324
(lp9325
F1496081621.813365
aS'29.05.17'
p9326
asS'Global X SuperIncome Preferred ETF'
p9327
(lp9328
S'USD'
p9329
aS'187'
p9330
aS'13.43'
p9331
aS'0.00'
p9332
aS'12.86'
p9333
aS'2405'
p9334
aS'20232'
p9335
aS'-1.17'
p9336
aS'-239'
p9337
asS'SKAGEN Focus A'
p9338
(lp9339
S'NOK'
p9340
aS'68.8462'
p9341
aS'99.14'
p9342
aS'6825'
p9343
aS'0.52'
p9344
aS'114.75'
p9345
aS'7900'
p9346
aS'15.75'
p9347
aS'1075'
p9348
asS'DNB Teknologi'
p9349
(lp9350
S'NOK'
p9351
aS'9.5879'
p9352
aS'977.21'
p9353
aS'9369'
p9354
aS'0.00'
p9355
aS'1210.13'
p9356
aS'11603'
p9357
aS'23.83'
p9358
aS'2233'
p9359
asa(dp9360
S'KLP AksjeGlobal Indeks V'
p9361
(lp9362
S'NOK'
p9363
aS'6.5761'
p9364
aS'1066.82'
p9365
aS'7015'
p9366
aS'-0.17'
p9367
aS'1176.65'
p9368
aS'7738'
p9369
aS'10.30'
p9370
aS'722'
p9371
asS'KLP AksjeFremvoksende Markeder Indeks II'
p9372
(lp9373
S'NOK'
p9374
aS'3.0057'
p9375
aS'1534.74'
p9376
aS'4613'
p9377
aS'-0.89'
p9378
aS'1733.81'
p9379
aS'5211'
p9380
aS'12.97'
p9381
aS'598'
p9382
asS'Global X MSCI SuperDividend EAFE ETF'
p9383
(lp9384
S'USD'
p9385
aS'153'
p9386
aS'15.83'
p9387
aS'-0.75'
p9388
aS'17.25'
p9389
aS'2639'
p9390
aS'22280'
p9391
aS'8.30'
p9392
aS'1708'
p9393
asS'Alfred Berg Gambak'
p9394
(lp9395
S'NOK'
p9396
aS'0.2248'
p9397
aS'23907.51'
p9398
aS'5374'
p9399
aS'-1.27'
p9400
aS'26082.51'
p9401
aS'5863'
p9402
aS'9.10'
p9403
aS'489'
p9404
asS'Delphi Nordic'
p9405
(lp9406
S'NOK'
p9407
aS'0.1227'
p9408
aS'29991.77'
p9409
aS'3680'
p9410
aS'-0.34'
p9411
aS'34504.19'
p9412
aS'4234'
p9413
aS'15.05'
p9414
aS'554'
p9415
asS'date'
p9416
(lp9417
F1496331070.791677
aS'01.06.17'
p9418
asS'DNB Teknologi'
p9419
(lp9420
S'NOK'
p9421
aS'6.9992'
p9422
aS'977.21'
p9423
aS'6840'
p9424
aS'-0.17'
p9425
aS'1217.59'
p9426
aS'8522'
p9427
aS'24.60'
p9428
aS'1682'
p9429
asS'SKAGEN Focus A'
p9430
(lp9431
S'NOK'
p9432
aS'41.3077'
p9433
aS'99.14'
p9434
aS'4095'
p9435
aS'-0.42'
p9436
aS'114.56'
p9437
aS'4732'
p9438
aS'15.56'
p9439
aS'637'
p9440
asS'Global X SuperIncome Preferred ETF'
p9441
(lp9442
S'USD'
p9443
aS'187'
p9444
aS'13.43'
p9445
aS'-0.23'
p9446
aS'12.75'
p9447
aS'2384'
p9448
aS'20127'
p9449
aS'-1.68'
p9450
aS'-344'
p9451
asa(dp9452
S'KLP AksjeGlobal Indeks V'
p9453
(lp9454
S'NOK'
p9455
aS'6.5761'
p9456
aS'1066.82'
p9457
aS'7015'
p9458
aS'0.88'
p9459
aS'1186.97'
p9460
aS'7806'
p9461
aS'11.26'
p9462
aS'790'
p9463
asS'KLP AksjeFremvoksende Markeder Indeks II'
p9464
(lp9465
S'NOK'
p9466
aS'3.0057'
p9467
aS'1534.74'
p9468
aS'4613'
p9469
aS'0.64'
p9470
aS'1744.84'
p9471
aS'5244'
p9472
aS'13.69'
p9473
aS'632'
p9474
asS'Global X MSCI SuperDividend EAFE ETF'
p9475
(lp9476
S'USD'
p9477
aS'153'
p9478
aS'15.83'
p9479
aS'0.00'
p9480
aS'17.40'
p9481
aS'2662'
p9482
aS'22414'
p9483
aS'8.95'
p9484
aS'1842'
p9485
asS'Alfred Berg Gambak'
p9486
(lp9487
S'NOK'
p9488
aS'0.2248'
p9489
aS'23907.51'
p9490
aS'5374'
p9491
aS'0.45'
p9492
aS'26199.14'
p9493
aS'5890'
p9494
aS'9.59'
p9495
aS'515'
p9496
asS'Delphi Nordic'
p9497
(lp9498
S'NOK'
p9499
aS'0.1227'
p9500
aS'29991.77'
p9501
aS'3680'
p9502
aS'0.14'
p9503
aS'34833.85'
p9504
aS'4274'
p9505
aS'16.14'
p9506
aS'594'
p9507
asS'date'
p9508
(lp9509
F1496654358.0723169
aS'05.06.17'
p9510
asS'Global X SuperIncome Preferred ETF'
p9511
(lp9512
S'USD'
p9513
aS'187'
p9514
aS'13.43'
p9515
aS'0.00'
p9516
aS'12.78'
p9517
aS'2390'
p9518
aS'20121'
p9519
aS'-1.71'
p9520
aS'-351'
p9521
asS'SKAGEN Focus A'
p9522
(lp9523
S'NOK'
p9524
aS'41.3077'
p9525
aS'99.14'
p9526
aS'4095'
p9527
aS'0.36'
p9528
aS'116.31'
p9529
aS'4804'
p9530
aS'17.32'
p9531
aS'709'
p9532
asS'DNB Teknologi'
p9533
(lp9534
S'NOK'
p9535
aS'6.9992'
p9536
aS'977.21'
p9537
aS'6840'
p9538
aS'0.74'
p9539
aS'1226.66'
p9540
aS'8586'
p9541
aS'25.53'
p9542
aS'1746'
p9543
asa(dp9544
S'KLP AksjeGlobal Indeks V'
p9545
(lp9546
S'NOK'
p9547
aS'6.5761'
p9548
aS'1066.82'
p9549
aS'7015'
p9550
aS'0.00'
p9551
aS'1193.69'
p9552
aS'7850'
p9553
aS'11.89'
p9554
aS'834'
p9555
asS'KLP AksjeFremvoksende Markeder Indeks II'
p9556
(lp9557
S'NOK'
p9558
aS'3.0057'
p9559
aS'1534.74'
p9560
aS'4613'
p9561
aS'0.00'
p9562
aS'1764.70'
p9563
aS'5304'
p9564
aS'14.98'
p9565
aS'691'
p9566
asS'Global X MSCI SuperDividend EAFE ETF'
p9567
(lp9568
S'USD'
p9569
aS'153'
p9570
aS'15.83'
p9571
aS'0.00'
p9572
aS'17.36'
p9573
aS'2656'
p9574
aS'22549'
p9575
aS'9.61'
p9576
aS'1977'
p9577
asS'Alfred Berg Gambak'
p9578
(lp9579
S'NOK'
p9580
aS'0.2248'
p9581
aS'23907.51'
p9582
aS'5374'
p9583
aS'0.00'
p9584
aS'26152.42'
p9585
aS'5879'
p9586
aS'9.39'
p9587
aS'505'
p9588
asS'Delphi Nordic'
p9589
(lp9590
S'NOK'
p9591
aS'0.1227'
p9592
aS'29991.77'
p9593
aS'3680'
p9594
aS'-0.03'
p9595
aS'34881.72'
p9596
aS'4280'
p9597
aS'16.30'
p9598
aS'600'
p9599
asS'date'
p9600
(lp9601
F1496886434.4787221
aS'08.06.17'
p9602
asS'DNB Teknologi'
p9603
(lp9604
S'NOK'
p9605
aS'6.9992'
p9606
aS'977.21'
p9607
aS'6840'
p9608
aS'0.00'
p9609
aS'1227.24'
p9610
aS'8590'
p9611
aS'25.59'
p9612
aS'1750'
p9613
asS'SKAGEN Focus A'
p9614
(lp9615
S'NOK'
p9616
aS'41.3077'
p9617
aS'99.14'
p9618
aS'4095'
p9619
aS'0.48'
p9620
aS'117.51'
p9621
aS'4854'
p9622
aS'18.53'
p9623
aS'759'
p9624
asS'Global X SuperIncome Preferred ETF'
p9625
(lp9626
S'USD'
p9627
aS'187'
p9628
aS'13.43'
p9629
aS'0.00'
p9630
aS'12.74'
p9631
aS'2382'
p9632
aS'20225'
p9633
aS'-1.20'
p9634
aS'-246'
p9635
asa(dp9636
S'KLP AksjeGlobal Indeks V'
p9637
(lp9638
S'NOK'
p9639
aS'6.5761'
p9640
aS'1066.82'
p9641
aS'7015'
p9642
aS'0.26'
p9643
aS'1196.80'
p9644
aS'7870'
p9645
aS'12.18'
p9646
aS'855'
p9647
asS'KLP AksjeFremvoksende Markeder Indeks II'
p9648
(lp9649
S'NOK'
p9650
aS'3.0057'
p9651
aS'1534.74'
p9652
aS'4613'
p9653
aS'0.23'
p9654
aS'1768.73'
p9655
aS'5316'
p9656
aS'15.25'
p9657
aS'703'
p9658
asS'Global X MSCI SuperDividend EAFE ETF'
p9659
(lp9660
S'USD'
p9661
aS'153'
p9662
aS'15.83'
p9663
aS'0.00'
p9664
aS'17.31'
p9665
aS'2648'
p9666
aS'22565'
p9667
aS'9.69'
p9668
aS'1993'
p9669
asS'Alfred Berg Gambak'
p9670
(lp9671
S'NOK'
p9672
aS'0.2248'
p9673
aS'23907.51'
p9674
aS'5374'
p9675
aS'-0.16'
p9676
aS'26111.51'
p9677
aS'5870'
p9678
aS'9.22'
p9679
aS'495'
p9680
asS'Delphi Nordic'
p9681
(lp9682
S'NOK'
p9683
aS'0.1227'
p9684
aS'29991.77'
p9685
aS'3680'
p9686
aS'-0.58'
p9687
aS'34681.01'
p9688
aS'4255'
p9689
aS'15.64'
p9690
aS'575'
p9691
asS'date'
p9692
(lp9693
F1496996630.530092
aS'09.06.17'
p9694
asS'Global X SuperIncome Preferred ETF'
p9695
(lp9696
S'USD'
p9697
aS'187'
p9698
aS'13.43'
p9699
aS'0.00'
p9700
aS'12.73'
p9701
aS'2381'
p9702
aS'20282'
p9703
aS'-0.93'
p9704
aS'-189'
p9705
asS'SKAGEN Focus A'
p9706
(lp9707
S'NOK'
p9708
aS'41.3077'
p9709
aS'99.14'
p9710
aS'4095'
p9711
aS'-0.32'
p9712
aS'117.14'
p9713
aS'4839'
p9714
aS'18.16'
p9715
aS'743'
p9716
asS'DNB Teknologi'
p9717
(lp9718
S'NOK'
p9719
aS'6.9992'
p9720
aS'977.21'
p9721
aS'6840'
p9722
aS'0.27'
p9723
aS'1230.53'
p9724
aS'8613'
p9725
aS'25.92'
p9726
aS'1773'
p9727
asa.