(lp1
(dp2
S'DNB Teknologi'
p3
(lp4
S'NOK'
p5
aS'5.3025'
p6
aS'925.87'
p7
aS'4909'
p8
aS'2.52'
p9
aS'963.65'
p10
aS'5110'
p11
aS'4.08'
p12
aS'200'
p13
asS'KLP AksjeFremvoksende Markeder Indeks II'
p14
(lp15
S'NOK'
p16
aS'2.3032'
p17
aS'1530.48'
p18
aS'3525'
p19
aS'2.59'
p20
aS'1496.00'
p21
aS'3446'
p22
aS'-2.25'
p23
aS'-79'
p24
asS'Alfred Berg Gambak'
p25
(lp26
S'NOK'
p27
aS'0.1916'
p28
aS'22645.21'
p29
aS'4339'
p30
aS'0.76'
p31
aS'24773.59'
p32
aS'4747'
p33
aS'9.40'
p34
aS'408'
p35
asS'Delphi Nordic'
p36
(lp37
S'NOK'
p38
aS'0.1398'
p39
aS'29816.29'
p40
aS'4168'
p41
aS'1.47'
p42
aS'28781.84'
p43
aS'4024'
p44
aS'-3.47'
p45
aS'-145'
p46
asS'date'
p47
(lp48
F1478623967.4808011
aS'08.11.16'
p49
asS'KLP AksjeGlobal Indeks IV A'
p50
(lp51
S'NOK'
p52
aS'2.6544'
p53
aS'1744.27'
p54
aS'4630'
p55
aS'1.88'
p56
aS'1708.77'
p57
aS'4536'
p58
aS'-2.04'
p59
aS'-94'
p60
asS'SKAGEN Focus A'
p61
(lp62
S'NOK'
p63
aS'62.9584'
p64
aS'98.24'
p65
aS'6185'
p66
aS'1.55'
p67
aS'98.11'
p68
aS'6177'
p69
aS'-0.13'
p70
aS'-8'
p71
asS'Alfred Berg Nordisk Eiendom C'
p72
(lp73
S'NOK'
p74
aS'48.1003'
p75
aS'109.65'
p76
aS'5274'
p77
aS'0.21'
p78
aS'103.91'
p79
aS'4998'
p80
aS'-5.23'
p81
aS'-276'
p82
asa(dp83
g3
(lp84
S'NOK'
p85
aS'6.8588'
p86
aS'934.49'
p87
aS'6409'
p88
aS'0.02'
p89
aS'963.84'
p90
aS'6611'
p91
aS'3.14'
p92
aS'201'
p93
asS'KLP AksjeFremvoksende Markeder Indeks II'
p94
(lp95
S'NOK'
p96
aS'2.3032'
p97
aS'1530.48'
p98
aS'3525'
p99
aS'0.45'
p100
aS'1502.78'
p101
aS'3461'
p102
aS'-1.81'
p103
aS'-64'
p104
asS'Alfred Berg Gambak'
p105
(lp106
S'NOK'
p107
aS'0.1916'
p108
aS'22645.21'
p109
aS'4339'
p110
aS'0.18'
p111
aS'24819.05'
p112
aS'4755'
p113
aS'9.60'
p114
aS'417'
p115
asS'Delphi Nordic'
p116
(lp117
S'NOK'
p118
aS'0.1398'
p119
aS'29816.29'
p120
aS'4168'
p121
aS'-0.93'
p122
aS'28514.87'
p123
aS'3986'
p124
aS'-4.36'
p125
aS'-182'
p126
asS'date'
p127
(lp128
F1478701920.1436191
aS'09.11.16'
p129
asS'KLP AksjeGlobal Indeks IV A'
p130
(lp131
S'NOK'
p132
aS'2.6544'
p133
aS'1744.27'
p134
aS'4630'
p135
aS'0.36'
p136
aS'1714.84'
p137
aS'4552'
p138
aS'-1.69'
p139
aS'-78'
p140
asS'SKAGEN Focus A'
p141
(lp142
S'NOK'
p143
aS'62.9584'
p144
aS'98.24'
p145
aS'6185'
p146
aS'-0.12'
p147
aS'98.00'
p148
aS'6170'
p149
aS'-0.25'
p150
aS'-15'
p151
asS'Alfred Berg Nordisk Eiendom C'
p152
(lp153
S'NOK'
p154
aS'48.1003'
p155
aS'109.65'
p156
aS'5274'
p157
aS'0.50'
p158
aS'104.43'
p159
aS'5023'
p160
aS'-4.76'
p161
aS'-251'
p162
asa(dp163
g3
(lp164
S'NOK'
p165
aS'6.8588'
p166
aS'934.48'
p167
aS'6409'
p168
aS'0.21'
p169
aS'965.86'
p170
aS'6625'
p171
aS'3.36'
p172
aS'215'
p173
asS'KLP AksjeFremvoksende Markeder Indeks II'
p174
(lp175
S'NOK'
p176
aS'3.1460'
p177
aS'1517.80'
p178
aS'4775'
p179
aS'-1.30'
p180
aS'1483.22'
p181
aS'4666'
p182
aS'-2.28'
p183
aS'-109'
p184
asS'Alfred Berg Gambak'
p185
(lp186
S'NOK'
p187
aS'0.2319'
p188
aS'23022.09'
p189
aS'5339'
p190
aS'-0.03'
p191
aS'24812.60'
p192
aS'5754'
p193
aS'7.78'
p194
aS'415'
p195
asS'Delphi Nordic'
p196
(lp197
S'NOK'
p198
aS'0.1678'
p199
aS'29608.57'
p200
aS'4968'
p201
aS'1.68'
p202
aS'29067.34'
p203
aS'4878'
p204
aS'-1.83'
p205
aS'-91'
p206
asS'date'
p207
(lp208
F1478868299.402627
aS'11.11.16'
p209
asS'KLP AksjeGlobal Indeks IV A'
p210
(lp211
S'NOK'
p212
aS'3.1209'
p213
aS'1739.88'
p214
aS'5430'
p215
aS'0.39'
p216
aS'1721.56'
p217
aS'5373'
p218
aS'-1.05'
p219
aS'-57'
p220
asS'SKAGEN Focus A'
p221
(lp222
S'NOK'
p223
aS'62.9584'
p224
aS'98.24'
p225
aS'6185'
p226
aS'2.59'
p227
aS'100.40'
p228
aS'6321'
p229
aS'2.19'
p230
aS'136'
p231
asS'Alfred Berg Nordisk Eiendom C'
p232
(lp233
S'NOK'
p234
aS'38.4802'
p235
aS'109.65'
p236
aS'4219'
p237
aS'0.05'
p238
aS'103.03'
p239
aS'3965'
p240
aS'-6.03'
p241
aS'-255'
p242
asa(dp243
g3
(lp244
S'NOK'
p245
aS'6.8588'
p246
aS'934.48'
p247
aS'6409'
p248
aS'0.23'
p249
aS'973.04'
p250
aS'6674'
p251
aS'4.13'
p252
aS'264'
p253
asS'KLP AksjeFremvoksende Markeder Indeks II'
p254
(lp255
S'NOK'
p256
aS'3.1460'
p257
aS'1517.80'
p258
aS'4775'
p259
aS'0.37'
p260
aS'1488.73'
p261
aS'4684'
p262
aS'-1.92'
p263
aS'-91'
p264
asS'Alfred Berg Gambak'
p265
(lp266
S'NOK'
p267
aS'0.2319'
p268
aS'23022.09'
p269
aS'5339'
p270
aS'-0.34'
p271
aS'24910.36'
p272
aS'5777'
p273
aS'8.20'
p274
aS'438'
p275
asS'Delphi Nordic'
p276
(lp277
S'NOK'
p278
aS'0.1678'
p279
aS'29608.57'
p280
aS'4968'
p281
aS'-1.21'
p282
aS'28716.17'
p283
aS'4819'
p284
aS'-3.01'
p285
aS'-150'
p286
asS'date'
p287
(lp288
F1479132661.7508719
aS'14.11.16'
p289
asS'KLP AksjeGlobal Indeks IV A'
p290
(lp291
S'NOK'
p292
aS'3.1209'
p293
aS'1739.88'
p294
aS'5430'
p295
aS'0.67'
p296
aS'1733.16'
p297
aS'5409'
p298
aS'-0.39'
p299
aS'-21'
p300
asS'SKAGEN Focus A'
p301
(lp302
S'NOK'
p303
aS'62.9584'
p304
aS'98.24'
p305
aS'6185'
p306
aS'-1.06'
p307
aS'99.33'
p308
aS'6254'
p309
aS'1.11'
p310
aS'69'
p311
asS'Alfred Berg Nordisk Eiendom C'
p312
(lp313
S'NOK'
p314
aS'38.4802'
p315
aS'109.65'
p316
aS'4219'
p317
aS'-1.63'
p318
aS'101.35'
p319
aS'3900'
p320
aS'-7.57'
p321
aS'-319'
p322
asa(dp323
g3
(lp324
S'NOK'
p325
aS'6.8588'
p326
aS'934.48'
p327
aS'6409'
p328
aS'0.40'
p329
aS'976.92'
p330
aS'6701'
p331
aS'4.54'
p332
aS'291'
p333
asS'KLP AksjeFremvoksende Markeder Indeks II'
p334
(lp335
S'NOK'
p336
aS'3.1460'
p337
aS'1517.80'
p338
aS'4775'
p339
aS'-0.18'
p340
aS'1447.92'
p341
aS'4555'
p342
aS'-4.60'
p343
aS'-220'
p344
asS'Alfred Berg Gambak'
p345
(lp346
S'NOK'
p347
aS'0.2319'
p348
aS'23022.09'
p349
aS'5339'
p350
aS'0.07'
p351
aS'24927.82'
p352
aS'5781'
p353
aS'8.28'
p354
aS'442'
p355
asS'Delphi Nordic'
p356
(lp357
S'NOK'
p358
aS'0.1678'
p359
aS'29608.57'
p360
aS'4968'
p361
aS'0.13'
p362
aS'28735.22'
p363
aS'4822'
p364
aS'-2.95'
p365
aS'-147'
p366
asS'date'
p367
(lp368
F1479246451.2727001
aS'15.11.16'
p369
asS'KLP AksjeGlobal Indeks IV A'
p370
(lp371
S'NOK'
p372
aS'3.1209'
p373
aS'1739.88'
p374
aS'5430'
p375
aS'0.17'
p376
aS'1731.47'
p377
aS'5404'
p378
aS'-0.48'
p379
aS'-26'
p380
asS'SKAGEN Focus A'
p381
(lp382
S'NOK'
p383
aS'62.9584'
p384
aS'98.24'
p385
aS'6185'
p386
aS'-0.99'
p387
aS'100.15'
p388
aS'6306'
p389
aS'1.95'
p390
aS'120'
p391
asS'Alfred Berg Nordisk Eiendom C'
p392
(lp393
S'NOK'
p394
aS'38.4802'
p395
aS'109.65'
p396
aS'4219'
p397
aS'0.24'
p398
aS'101.49'
p399
aS'3905'
p400
aS'-7.44'
p401
aS'-314'
p402
asa(dp403
g3
(lp404
S'NOK'
p405
aS'6.8588'
p406
aS'934.48'
p407
aS'6409'
p408
aS'-0.12'
p409
aS'975.71'
p410
aS'6692'
p411
aS'4.41'
p412
aS'283'
p413
asS'KLP AksjeFremvoksende Markeder Indeks II'
p414
(lp415
S'NOK'
p416
aS'3.1460'
p417
aS'1517.80'
p418
aS'4775'
p419
aS'-0.44'
p420
aS'1441.48'
p421
aS'4535'
p422
aS'-5.03'
p423
aS'-240'
p424
asS'Alfred Berg Gambak'
p425
(lp426
S'NOK'
p427
aS'0.2319'
p428
aS'23022.09'
p429
aS'5339'
p430
aS'1.55'
p431
aS'25313.70'
p432
aS'5870'
p433
aS'9.95'
p434
aS'531'
p435
asS'Delphi Nordic'
p436
(lp437
S'NOK'
p438
aS'0.1678'
p439
aS'29608.57'
p440
aS'4968'
p441
aS'0.68'
p442
aS'28930.02'
p443
aS'4854'
p444
aS'-2.29'
p445
aS'-114'
p446
asS'date'
p447
(lp448
F1479345620.248419
aS'17.11.16'
p449
asS'KLP AksjeGlobal Indeks IV A'
p450
(lp451
S'NOK'
p452
aS'3.1209'
p453
aS'1739.88'
p454
aS'5430'
p455
aS'0.66'
p456
aS'1742.81'
p457
aS'5439'
p458
aS'0.17'
p459
aS'9'
asS'SKAGEN Focus A'
p460
(lp461
S'NOK'
p462
aS'62.9584'
p463
aS'98.24'
p464
aS'6185'
p465
aS'0.97'
p466
aS'101.13'
p467
aS'6367'
p468
aS'2.94'
p469
aS'182'
p470
asS'Alfred Berg Nordisk Eiendom C'
p471
(lp472
S'NOK'
p473
aS'38.4802'
p474
aS'109.65'
p475
aS'4219'
p476
aS'0.45'
p477
aS'101.95'
p478
aS'3923'
p479
aS'-7.02'
p480
aS'-296'
p481
asa(dp482
g3
(lp483
S'NOK'
p484
aS'6.8588'
p485
aS'934.48'
p486
aS'6409'
p487
aS'1.00'
p488
aS'985.45'
p489
aS'6759'
p490
aS'5.45'
p491
aS'350'
p492
asS'KLP AksjeFremvoksende Markeder Indeks II'
p493
(lp494
S'NOK'
p495
aS'3.1460'
p496
aS'1517.80'
p497
aS'4775'
p498
aS'1.35'
p499
aS'1461.00'
p500
aS'4596'
p501
aS'-3.74'
p502
aS'-179'
p503
asS'Alfred Berg Gambak'
p504
(lp505
S'NOK'
p506
aS'0.2319'
p507
aS'23022.09'
p508
aS'5339'
p509
aS'-0.33'
p510
aS'25229.72'
p511
aS'5851'
p512
aS'9.59'
p513
aS'512'
p514
asS'Delphi Nordic'
p515
(lp516
S'NOK'
p517
aS'0.1678'
p518
aS'29608.57'
p519
aS'4968'
p520
aS'0.50'
p521
aS'29075.23'
p522
aS'4879'
p523
aS'-1.80'
p524
aS'-89'
p525
asS'date'
p526
(lp527
F1479453216.679297
aS'18.11.16'
p528
asS'KLP AksjeGlobal Indeks IV A'
p529
(lp530
S'NOK'
p531
aS'3.1209'
p532
aS'1739.88'
p533
aS'5430'
p534
aS'-0.05'
p535
aS'1741.86'
p536
aS'5436'
p537
aS'0.11'
p538
aS'6'
asS'SKAGEN Focus A'
p539
(lp540
S'NOK'
p541
aS'62.9584'
p542
aS'98.24'
p543
aS'6185'
p544
aS'0.71'
p545
aS'101.85'
p546
aS'6412'
p547
aS'3.67'
p548
aS'227'
p549
asS'Alfred Berg Nordisk Eiendom C'
p550
(lp551
S'NOK'
p552
aS'38.4802'
p553
aS'109.65'
p554
aS'4219'
p555
aS'0.77'
p556
aS'102.73'
p557
aS'3953'
p558
aS'-6.31'
p559
aS'-266'
p560
asa(dp561
g3
(lp562
S'NOK'
p563
aS'6.8588'
p564
aS'934.48'
p565
aS'6409'
p566
aS'0.54'
p567
aS'990.82'
p568
aS'6796'
p569
aS'6.03'
p570
aS'386'
p571
asS'KLP AksjeFremvoksende Markeder Indeks II'
p572
(lp573
S'NOK'
p574
aS'3.1460'
p575
aS'1517.80'
p576
aS'4775'
p577
aS'0.01'
p578
aS'1461.18'
p579
aS'4597'
p580
aS'-3.73'
p581
aS'-178'
p582
asS'Alfred Berg Gambak'
p583
(lp584
S'NOK'
p585
aS'0.2319'
p586
aS'23022.09'
p587
aS'5339'
p588
aS'0.16'
p589
aS'25270.70'
p590
aS'5860'
p591
aS'9.77'
p592
aS'521'
p593
asS'Delphi Nordic'
p594
(lp595
S'NOK'
p596
aS'0.1678'
p597
aS'29608.57'
p598
aS'4968'
p599
aS'0.89'
p600
aS'29333.02'
p601
aS'4922'
p602
aS'-0.93'
p603
aS'-46'
p604
asS'date'
p605
(lp606
F1479523339.968684
aS'19.11.16'
p607
asS'KLP AksjeGlobal Indeks IV A'
p608
(lp609
S'NOK'
p610
aS'2.0910'
p611
aS'1739.88'
p612
aS'3638'
p613
aS'0.50'
p614
aS'1750.55'
p615
aS'3660'
p616
aS'0.61'
p617
aS'22'
p618
asS'SKAGEN Focus A'
p619
(lp620
S'NOK'
p621
aS'62.9584'
p622
aS'98.24'
p623
aS'6185'
p624
aS'0.73'
p625
aS'102.59'
p626
aS'6459'
p627
aS'4.42'
p628
aS'273'
p629
asS'Alfred Berg Nordisk Eiendom C'
p630
(lp631
S'NOK'
p632
aS'38.4802'
p633
aS'109.65'
p634
aS'4219'
p635
aS'1.96'
p636
aS'104.74'
p637
aS'4030'
p638
aS'-4.47'
p639
aS'-189'
p640
asa(dp641
g3
(lp642
S'NOK'
p643
aS'6.8588'
p644
aS'934.48'
p645
aS'6409'
p646
aS'1.11'
p647
aS'1001.77'
p648
aS'6871'
p649
aS'7.20'
p650
aS'462'
p651
asS'KLP AksjeFremvoksende Markeder Indeks II'
p652
(lp653
S'NOK'
p654
aS'3.1460'
p655
aS'1517.80'
p656
aS'4775'
p657
aS'0.88'
p658
aS'1474.06'
p659
aS'4637'
p660
aS'-2.88'
p661
aS'-138'
p662
asS'Alfred Berg Gambak'
p663
(lp664
S'NOK'
p665
aS'0.2319'
p666
aS'23022.09'
p667
aS'5339'
p668
aS'0.20'
p669
aS'25320.96'
p670
aS'5872'
p671
aS'9.99'
p672
aS'533'
p673
asS'Delphi Nordic'
p674
(lp675
S'NOK'
p676
aS'0.1678'
p677
aS'29608.57'
p678
aS'4968'
p679
aS'-0.07'
p680
aS'29311.79'
p681
aS'4919'
p682
aS'-1.00'
p683
aS'-50'
p684
asS'date'
p685
(lp686
F1479808655.193243
aS'22.11.16'
p687
asS'KLP AksjeGlobal Indeks IV A'
p688
(lp689
S'NOK'
p690
aS'2.0910'
p691
aS'1739.88'
p692
aS'3638'
p693
aS'-0.17'
p694
aS'1747.62'
p695
aS'3654'
p696
aS'0.44'
p697
aS'16'
p698
asS'SKAGEN Focus A'
p699
(lp700
S'NOK'
p701
aS'62.9584'
p702
aS'98.24'
p703
aS'6185'
p704
aS'-0.52'
p705
aS'102.05'
p706
aS'6425'
p707
aS'3.88'
p708
aS'240'
p709
asS'Alfred Berg Nordisk Eiendom C'
p710
(lp711
S'NOK'
p712
aS'38.4802'
p713
aS'109.65'
p714
aS'4219'
p715
aS'-0.21'
p716
aS'104.52'
p717
aS'4022'
p718
aS'-4.67'
p719
aS'-197'
p720
asa(dp721
g3
(lp722
S'NOK'
p723
aS'6.8588'
p724
aS'934.48'
p725
aS'6409'
p726
aS'-0.52'
p727
aS'996.59'
p728
aS'6835'
p729
aS'6.65'
p730
aS'426'
p731
asS'KLP AksjeFremvoksende Markeder Indeks II'
p732
(lp733
S'NOK'
p734
aS'3.1460'
p735
aS'1517.80'
p736
aS'4775'
p737
aS'-0.39'
p738
aS'1468.32'
p739
aS'4619'
p740
aS'-3.26'
p741
aS'-156'
p742
asS'Alfred Berg Gambak'
p743
(lp744
S'NOK'
p745
aS'0.2319'
p746
aS'23022.09'
p747
aS'5339'
p748
aS'0.68'
p749
aS'25492.19'
p750
aS'5912'
p751
aS'10.73'
p752
aS'573'
p753
asS'Delphi Nordic'
p754
(lp755
S'NOK'
p756
aS'0.1678'
p757
aS'29608.57'
p758
aS'4968'
p759
aS'-0.07'
p760
aS'29290.54'
p761
aS'4915'
p762
aS'-1.07'
p763
aS'-53'
p764
asS'date'
p765
(lp766
F1479864527.8650379
aS'23.11.16'
p767
asS'KLP AksjeGlobal Indeks IV A'
p768
(lp769
S'NOK'
p770
aS'1.0455'
p771
aS'1739.88'
p772
aS'1819'
p773
aS'0.59'
p774
aS'1757.85'
p775
aS'1838'
p776
aS'1.03'
p777
aS'19'
p778
asS'SKAGEN Focus A'
p779
(lp780
S'NOK'
p781
aS'62.9584'
p782
aS'98.24'
p783
aS'6185'
p784
aS'0.85'
p785
aS'102.92'
p786
aS'6480'
p787
aS'4.76'
p788
aS'294'
p789
asS'Alfred Berg Nordisk Eiendom C'
p790
(lp791
S'NOK'
p792
aS'38.4802'
p793
aS'109.65'
p794
aS'4219'
p795
aS'-0.60'
p796
aS'103.89'
p797
aS'3998'
p798
aS'-5.25'
p799
aS'-221'
p800
asa(dp801
S'KLP AksjeGlobal Indeks V'
p802
(lp803
S'NOK'
p804
aS'6.4678'
p805
aS'1051.22'
p806
aS'6799'
p807
aS'0.02'
p808
aS'1058.66'
p809
aS'6847'
p810
aS'0.71'
p811
aS'48'
p812
asS'KLP AksjeFremvoksende Markeder Indeks II'
p813
(lp814
S'NOK'
p815
aS'3.1460'
p816
aS'1517.80'
p817
aS'4775'
p818
aS'1.05'
p819
aS'1483.74'
p820
aS'4668'
p821
aS'-2.24'
p822
aS'-107'
p823
asS'Alfred Berg Gambak'
p824
(lp825
S'NOK'
p826
aS'0.2319'
p827
aS'23022.09'
p828
aS'5339'
p829
aS'0.14'
p830
aS'25528.37'
p831
aS'5920'
p832
aS'10.89'
p833
aS'581'
p834
asS'Delphi Nordic'
p835
(lp836
S'NOK'
p837
aS'0.1678'
p838
aS'29608.57'
p839
aS'4968'
p840
aS'0.00'
p841
aS'29291.78'
p842
aS'4915'
p843
aS'-1.07'
p844
aS'-53'
p845
asS'date'
p846
(lp847
F1479986975.7003579
aS'24.11.16'
p848
asg3
(lp849
S'NOK'
p850
aS'6.8588'
p851
aS'934.48'
p852
aS'6409'
p853
aS'0.65'
p854
aS'1002.21'
p855
aS'6874'
p856
aS'7.25'
p857
aS'465'
p858
asS'SKAGEN Focus A'
p859
(lp860
S'NOK'
p861
aS'62.9584'
p862
aS'98.24'
p863
aS'6185'
p864
aS'0.41'
p865
aS'103.33'
p866
aS'6506'
p867
aS'5.18'
p868
aS'321'
p869
asS'Alfred Berg Nordisk Eiendom C'
p870
(lp871
S'NOK'
p872
aS'38.4802'
p873
aS'109.65'
p874
aS'4219'
p875
aS'2.23'
p876
aS'106.21'
p877
aS'4087'
p878
aS'-3.13'
p879
aS'-132'
p880
asa(dp881
S'KLP AksjeGlobal Indeks V'
p882
(lp883
S'NOK'
p884
aS'6.4678'
p885
aS'1051.22'
p886
aS'6799'
p887
aS'0.79'
p888
aS'1067.05'
p889
aS'6901'
p890
aS'1.51'
p891
aS'102'
p892
asS'KLP AksjeFremvoksende Markeder Indeks II'
p893
(lp894
S'NOK'
p895
aS'3.1460'
p896
aS'1517.80'
p897
aS'4775'
p898
aS'-0.86'
p899
aS'1483.15'
p900
aS'4666'
p901
aS'-2.28'
p902
aS'-109'
p903
asS'Alfred Berg Gambak'
p904
(lp905
S'NOK'
p906
aS'0.2319'
p907
aS'23022.09'
p908
aS'5339'
p909
aS'0.39'
p910
aS'25594.61'
p911
aS'5935'
p912
aS'11.17'
p913
aS'597'
p914
asS'Delphi Nordic'
p915
(lp916
S'NOK'
p917
aS'0.1678'
p918
aS'29608.57'
p919
aS'4968'
p920
aS'0.30'
p921
aS'29654.58'
p922
aS'4976'
p923
aS'0.16'
p924
aS'8'
asS'date'
p925
(lp926
F1480109683.528013
aS'25.11.16'
p927
asg3
(lp928
S'NOK'
p929
aS'6.8588'
p930
aS'934.48'
p931
aS'6409'
p932
aS'0.65'
p933
aS'1002.21'
p934
aS'6874'
p935
aS'7.25'
p936
aS'465.00000000001'
p937
asS'SKAGEN Focus A'
p938
(lp939
S'NOK'
p940
aS'62.9584'
p941
aS'98.24'
p942
aS'6185'
p943
aS'-0.35'
p944
aS'102.72'
p945
aS'6467'
p946
aS'4.56'
p947
aS'282'
p948
asS'Alfred Berg Nordisk Eiendom C'
p949
(lp950
S'NOK'
p951
aS'38.4802'
p952
aS'109.65'
p953
aS'4219'
p954
aS'0.01'
p955
aS'106.42'
p956
aS'4095'
p957
aS'-2.94'
p958
aS'-124'
p959
asa(dp960
S'KLP AksjeGlobal Indeks V'
p961
(lp962
S'NOK'
p963
aS'6.4678'
p964
aS'1051.22'
p965
aS'6799'
p966
aS'0.00'
p967
aS'1068.14'
p968
aS'6909'
p969
aS'1.61'
p970
aS'109'
p971
asS'KLP AksjeFremvoksende Markeder Indeks II'
p972
(lp973
S'NOK'
p974
aS'3.1460'
p975
aS'1517.80'
p976
aS'4775'
p977
aS'0.31'
p978
aS'1487.71'
p979
aS'4680'
p980
aS'-1.98'
p981
aS'-95'
p982
asS'Alfred Berg Gambak'
p983
(lp984
S'NOK'
p985
aS'0.2319'
p986
aS'23022.09'
p987
aS'5339'
p988
aS'-0.23'
p989
aS'25536.88'
p990
aS'5922'
p991
aS'10.92'
p992
aS'583'
p993
asS'Delphi Nordic'
p994
(lp995
S'NOK'
p996
aS'0.1678'
p997
aS'29608.57'
p998
aS'4968'
p999
aS'-0.02'
p1000
aS'29648.52'
p1001
aS'4975'
p1002
aS'0.13'
p1003
aS'7'
asS'date'
p1004
(lp1005
F1480371597.6485779
aS'28.11.16'
p1006
asg3
(lp1007
S'NOK'
p1008
aS'6.8588'
p1009
aS'934.48'
p1010
aS'6409'
p1011
aS'0.00'
p1012
aS'1008.33'
p1013
aS'6916'
p1014
aS'7.90'
p1015
aS'506'
p1016
asS'SKAGEN Focus A'
p1017
(lp1018
S'NOK'
p1019
aS'62.9584'
p1020
aS'98.24'
p1021
aS'6185'
p1022
aS'-0.15'
p1023
aS'102.56'
p1024
aS'6457'
p1025
aS'4.40'
p1026
aS'272'
p1027
asS'Alfred Berg Nordisk Eiendom C'
p1028
(lp1029
S'NOK'
p1030
aS'38.4802'
p1031
aS'109.65'
p1032
aS'4219'
p1033
aS'0.63'
p1034
aS'107.09'
p1035
aS'4121'
p1036
aS'-2.33'
p1037
aS'-98'
p1038
asa(dp1039
S'KLP AksjeGlobal Indeks V'
p1040
(lp1041
S'NOK'
p1042
aS'6.4678'
p1043
aS'1051.22'
p1044
aS'6799'
p1045
aS'-0.48'
p1046
aS'1063.06'
p1047
aS'6876'
p1048
aS'1.13'
p1049
aS'77'
p1050
asS'KLP AksjeFremvoksende Markeder Indeks II'
p1051
(lp1052
S'NOK'
p1053
aS'3.1460'
p1054
aS'1517.80'
p1055
aS'4775'
p1056
aS'0.90'
p1057
aS'1501.03'
p1058
aS'4722'
p1059
aS'-1.10'
p1060
aS'-53'
p1061
asS'Alfred Berg Gambak'
p1062
(lp1063
S'NOK'
p1064
aS'0.2319'
p1065
aS'23022.09'
p1066
aS'5339'
p1067
aS'-0.13'
p1068
aS'25504.65'
p1069
aS'5915'
p1070
aS'10.78'
p1071
aS'576'
p1072
asS'Delphi Nordic'
p1073
(lp1074
S'NOK'
p1075
aS'0.1754'
p1076
aS'29610.30'
p1077
aS'5194'
p1078
aS'-0.69'
p1079
aS'29443.45'
p1080
aS'5164'
p1081
aS'-0.56'
p1082
aS'-29'
p1083
asS'date'
p1084
(lp1085
F1480443641.0384769
aS'29.11.16'
p1086
asg3
(lp1087
S'NOK'
p1088
aS'7.2163'
p1089
aS'938.08'
p1090
aS'6769'
p1091
aS'-0.13'
p1092
aS'1007.04'
p1093
aS'7267'
p1094
aS'7.35'
p1095
aS'498'
p1096
asS'SKAGEN Focus A'
p1097
(lp1098
S'NOK'
p1099
aS'62.9584'
p1100
aS'98.24'
p1101
aS'6185'
p1102
aS'-0.35'
p1103
aS'102.20'
p1104
aS'6435'
p1105
aS'4.03'
p1106
aS'249'
p1107
asS'Alfred Berg Nordisk Eiendom C'
p1108
(lp1109
S'NOK'
p1110
aS'38.4802'
p1111
aS'109.65'
p1112
aS'4219'
p1113
aS'0.28'
p1114
aS'107.39'
p1115
aS'4132'
p1116
aS'-2.06'
p1117
aS'-87'
p1118
asa(dp1119
S'KLP AksjeGlobal Indeks V'
p1120
(lp1121
S'NOK'
p1122
aS'6.7077'
p1123
aS'1051.64'
p1124
aS'7054'
p1125
aS'-0.10'
p1126
aS'1061.99'
p1127
aS'7123'
p1128
aS'0.98'
p1129
aS'69'
p1130
asS'KLP AksjeFremvoksende Markeder Indeks II'
p1131
(lp1132
S'NOK'
p1133
aS'3.2970'
p1134
aS'1516.52'
p1135
aS'5000'
p1136
aS'-0.74'
p1137
aS'1489.91'
p1138
aS'4912'
p1139
aS'-1.75'
p1140
aS'-88'
p1141
asS'Alfred Berg Gambak'
p1142
(lp1143
S'NOK'
p1144
aS'0.2431'
p1145
aS'23133.78'
p1146
aS'5624'
p1147
aS'-0.54'
p1148
aS'25366.32'
p1149
aS'6167'
p1150
aS'9.65'
p1151
aS'543'
p1152
asS'Delphi Nordic'
p1153
(lp1154
S'NOK'
p1155
aS'0.1754'
p1156
aS'29608.42'
p1157
aS'5193'
p1158
aS'-0.01'
p1159
aS'29440.78'
p1160
aS'5164'
p1161
aS'-0.57'
p1162
aS'-29'
p1163
asS'date'
p1164
(lp1165
F1480540410.3992879
aS'30.11.16'
p1166
asg3
(lp1167
S'NOK'
p1168
aS'7.2163'
p1169
aS'938.08'
p1170
aS'6769'
p1171
aS'0.04'
p1172
aS'1007.47'
p1173
aS'7270'
p1174
aS'7.40'
p1175
aS'501'
p1176
asS'SKAGEN Focus A'
p1177
(lp1178
S'NOK'
p1179
aS'62.9584'
p1180
aS'98.24'
p1181
aS'6185'
p1182
aS'0.15'
p1183
aS'102.35'
p1184
aS'6444'
p1185
aS'4.18'
p1186
aS'259'
p1187
asS'Alfred Berg Nordisk Eiendom C'
p1188
(lp1189
S'NOK'
p1190
aS'39.8770'
p1191
aS'109.57'
p1192
aS'4369'
p1193
aS'-0.28'
p1194
aS'107.09'
p1195
aS'4270'
p1196
aS'-2.26'
p1197
aS'-99'
p1198
asa(dp1199
S'KLP AksjeGlobal Indeks V'
p1200
(lp1201
S'NOK'
p1202
aS'6.7077'
p1203
aS'1051.64'
p1204
aS'7054'
p1205
aS'-0.60'
p1206
aS'1055.64'
p1207
aS'7081'
p1208
aS'0.38'
p1209
aS'27'
p1210
asS'KLP AksjeFremvoksende Markeder Indeks II'
p1211
(lp1212
S'NOK'
p1213
aS'3.2970'
p1214
aS'1516.53'
p1215
aS'5000'
p1216
aS'-0.04'
p1217
aS'1489.31'
p1218
aS'4910'
p1219
aS'-1.79'
p1220
aS'-90'
p1221
asS'Alfred Berg Gambak'
p1222
(lp1223
S'NOK'
p1224
aS'0.2431'
p1225
aS'23133.78'
p1226
aS'5624'
p1227
aS'-0.18'
p1228
aS'25595.81'
p1229
aS'6222'
p1230
aS'10.64'
p1231
aS'599'
p1232
asS'Delphi Nordic'
p1233
(lp1234
S'NOK'
p1235
aS'0.1754'
p1236
aS'29608.42'
p1237
aS'5193'
p1238
aS'-1.16'
p1239
aS'29100.05'
p1240
aS'5104'
p1241
aS'-1.72'
p1242
aS'-89'
p1243
asS'date'
p1244
(lp1245
F1480683624.703486
aS'02.12.16'
p1246
asg3
(lp1247
S'NOK'
p1248
aS'7.2163'
p1249
aS'938.08'
p1250
aS'6769'
p1251
aS'-2.04'
p1252
aS'976.17'
p1253
aS'7044'
p1254
aS'4.06'
p1255
aS'275'
p1256
asS'SKAGEN Focus A'
p1257
(lp1258
S'NOK'
p1259
aS'62.9584'
p1260
aS'98.24'
p1261
aS'6185'
p1262
aS'-0.47'
p1263
aS'101.87'
p1264
aS'6413'
p1265
aS'3.69'
p1266
aS'228'
p1267
asS'Alfred Berg Nordisk Eiendom C'
p1268
(lp1269
S'NOK'
p1270
aS'39.8770'
p1271
aS'109.57'
p1272
aS'4369'
p1273
aS'-1.46'
p1274
aS'105.53'
p1275
aS'4208'
p1276
aS'-3.68'
p1277
aS'-161'
p1278
asa(dp1279
S'KLP AksjeGlobal Indeks V'
p1280
(lp1281
S'NOK'
p1282
aS'6.7077'
p1283
aS'1051.64'
p1284
aS'7054'
p1285
aS'-0.37'
p1286
aS'1042.70'
p1287
aS'6994'
p1288
aS'-0.85'
p1289
aS'-60'
p1290
asS'KLP AksjeFremvoksende Markeder Indeks II'
p1291
(lp1292
S'NOK'
p1293
aS'3.2970'
p1294
aS'1516.53'
p1295
aS'5000'
p1296
aS'-1.04'
p1297
aS'1457.17'
p1298
aS'4804'
p1299
aS'-3.91'
p1300
aS'-196'
p1301
asS'Alfred Berg Gambak'
p1302
(lp1303
S'NOK'
p1304
aS'0.2431'
p1305
aS'23133.78'
p1306
aS'5624'
p1307
aS'-0.09'
p1308
aS'25571.86'
p1309
aS'6217'
p1310
aS'10.54'
p1311
aS'593'
p1312
asS'Delphi Nordic'
p1313
(lp1314
S'NOK'
p1315
aS'0.1754'
p1316
aS'29608.42'
p1317
aS'5193'
p1318
aS'-0.78'
p1319
aS'28873.43'
p1320
aS'5064'
p1321
aS'-2.48'
p1322
aS'-129'
p1323
asS'date'
p1324
(lp1325
F1480947276.4394021
aS'05.12.16'
p1326
asg3
(lp1327
S'NOK'
p1328
aS'7.2163'
p1329
aS'938.08'
p1330
aS'6769'
p1331
aS'-0.65'
p1332
aS'969.85'
p1333
aS'6999'
p1334
aS'3.39'
p1335
aS'229'
p1336
asS'SKAGEN Focus A'
p1337
(lp1338
S'NOK'
p1339
aS'63.9429'
p1340
aS'98.29'
p1341
aS'6285'
p1342
aS'-0.29'
p1343
aS'101.57'
p1344
aS'6495'
p1345
aS'3.33'
p1346
aS'210'
p1347
asS'Alfred Berg Nordisk Eiendom C'
p1348
(lp1349
S'NOK'
p1350
aS'39.8770'
p1351
aS'109.57'
p1352
aS'4369'
p1353
aS'-0.11'
p1354
aS'105.41'
p1355
aS'4203'
p1356
aS'-3.79'
p1357
aS'-166'
p1358
asa(dp1359
S'KLP AksjeGlobal Indeks V'
p1360
(lp1361
S'NOK'
p1362
aS'6.8995'
p1363
aS'1051.39'
p1364
aS'7254'
p1365
aS'0.03'
p1366
aS'1043.04'
p1367
aS'7196'
p1368
aS'-0.79'
p1369
aS'-58'
p1370
asS'KLP AksjeFremvoksende Markeder Indeks II'
p1371
(lp1372
S'NOK'
p1373
aS'3.4003'
p1374
aS'1514.57'
p1375
aS'5150'
p1376
aS'-0.37'
p1377
aS'1451.75'
p1378
aS'4936'
p1379
aS'-4.15'
p1380
aS'-214'
p1381
asS'Alfred Berg Gambak'
p1382
(lp1383
S'NOK'
p1384
aS'0.2470'
p1385
aS'23173.37'
p1386
aS'5724'
p1387
aS'1.20'
p1388
aS'25877.46'
p1389
aS'6392'
p1390
aS'11.67'
p1391
aS'668'
p1392
asS'Delphi Nordic'
p1393
(lp1394
S'NOK'
p1395
aS'0.1754'
p1396
aS'29608.42'
p1397
aS'5193'
p1398
aS'-0.21'
p1399
aS'28995.40'
p1400
aS'5086'
p1401
aS'-2.07'
p1402
aS'-108'
p1403
asS'date'
p1404
(lp1405
F1481113534.881604
aS'07.12.16'
p1406
asg3
(lp1407
S'NOK'
p1408
aS'7.3194'
p1409
aS'938.52'
p1410
aS'6869'
p1411
aS'0.32'
p1412
aS'985.22'
p1413
aS'7211'
p1414
aS'4.98'
p1415
aS'342'
p1416
asS'SKAGEN Focus A'
p1417
(lp1418
S'NOK'
p1419
aS'63.9429'
p1420
aS'98.29'
p1421
aS'6285'
p1422
aS'0.71'
p1423
aS'102.12'
p1424
aS'6530'
p1425
aS'3.90'
p1426
aS'245'
p1427
asS'Alfred Berg Nordisk Eiendom C'
p1428
(lp1429
S'NOK'
p1430
aS'40.8312'
p1431
aS'109.46'
p1432
aS'4469'
p1433
aS'0.27'
p1434
aS'105.08'
p1435
aS'4291'
p1436
aS'-4.00'
p1437
aS'-179'
p1438
asa(dp1439
S'KLP AksjeGlobal Indeks V'
p1440
(lp1441
S'NOK'
p1442
aS'6.8995'
p1443
aS'1051.39'
p1444
aS'7254'
p1445
aS'0.55'
p1446
aS'1048.74'
p1447
aS'7236'
p1448
aS'-0.25'
p1449
aS'-18'
p1450
asS'KLP AksjeFremvoksende Markeder Indeks II'
p1451
(lp1452
S'NOK'
p1453
aS'3.4003'
p1454
aS'1514.57'
p1455
aS'5150'
p1456
aS'0.82'
p1457
aS'1463.69'
p1458
aS'4977'
p1459
aS'-3.36'
p1460
aS'-173'
p1461
asS'Alfred Berg Gambak'
p1462
(lp1463
S'NOK'
p1464
aS'0.2470'
p1465
aS'23173.37'
p1466
aS'5724'
p1467
aS'-0.24'
p1468
aS'25814.55'
p1469
aS'6376'
p1470
aS'11.40'
p1471
aS'652'
p1472
asS'Delphi Nordic'
p1473
(lp1474
S'NOK'
p1475
aS'0.1754'
p1476
aS'29608.42'
p1477
aS'5193'
p1478
aS'0.61'
p1479
aS'29172.22'
p1480
aS'5117'
p1481
aS'-1.47'
p1482
aS'-77'
p1483
asS'date'
p1484
(lp1485
F1481201954.0910561
aS'08.12.16'
p1486
asg3
(lp1487
S'NOK'
p1488
aS'7.3194'
p1489
aS'938.52'
p1490
aS'6869'
p1491
aS'1.77'
p1492
aS'1002.66'
p1493
aS'7339'
p1494
aS'6.83'
p1495
aS'469'
p1496
asS'SKAGEN Focus A'
p1497
(lp1498
S'NOK'
p1499
aS'63.9429'
p1500
aS'98.29'
p1501
aS'6285'
p1502
aS'1.52'
p1503
aS'103.68'
p1504
aS'6629'
p1505
aS'5.48'
p1506
aS'344'
p1507
asS'Alfred Berg Nordisk Eiendom C'
p1508
(lp1509
S'NOK'
p1510
aS'40.8312'
p1511
aS'109.46'
p1512
aS'4469'
p1513
aS'-0.03'
p1514
aS'105.05'
p1515
aS'4289'
p1516
aS'-4.02'
p1517
aS'-180'
p1518
asa(dp1519
S'KLP AksjeGlobal Indeks V'
p1520
(lp1521
S'NOK'
p1522
aS'6.8995'
p1523
aS'1051.39'
p1524
aS'7254'
p1525
aS'1.40'
p1526
aS'1074.00'
p1527
aS'7410'
p1528
aS'2.15'
p1529
aS'156'
p1530
asS'KLP AksjeFremvoksende Markeder Indeks II'
p1531
(lp1532
S'NOK'
p1533
aS'3.4003'
p1534
aS'1514.57'
p1535
aS'5150'
p1536
aS'2.51'
p1537
aS'1507.77'
p1538
aS'5127'
p1539
aS'-0.45'
p1540
aS'-23'
p1541
asS'Alfred Berg Gambak'
p1542
(lp1543
S'NOK'
p1544
aS'0.2470'
p1545
aS'23173.37'
p1546
aS'5724'
p1547
aS'0.33'
p1548
aS'25940.17'
p1549
aS'6407'
p1550
aS'11.94'
p1551
aS'683'
p1552
asS'Delphi Nordic'
p1553
(lp1554
S'NOK'
p1555
aS'0.1754'
p1556
aS'29608.42'
p1557
aS'5193'
p1558
aS'0.80'
p1559
aS'29406.00'
p1560
aS'5158'
p1561
aS'-0.68'
p1562
aS'-36'
p1563
asS'date'
p1564
(lp1565
F1481296474.3981221
aS'09.12.16'
p1566
asg3
(lp1567
S'NOK'
p1568
aS'7.3194'
p1569
aS'938.52'
p1570
aS'6869'
p1571
aS'0.89'
p1572
aS'1011.54'
p1573
aS'7404'
p1574
aS'7.78'
p1575
aS'534'
p1576
asS'SKAGEN Focus A'
p1577
(lp1578
S'NOK'
p1579
aS'63.9429'
p1580
aS'98.29'
p1581
aS'6285'
p1582
aS'2.20'
p1583
aS'105.96'
p1584
aS'6775'
p1585
aS'7.79'
p1586
aS'490'
p1587
asS'Alfred Berg Nordisk Eiendom C'
p1588
(lp1589
S'NOK'
p1590
aS'40.8312'
p1591
aS'109.46'
p1592
aS'4469'
p1593
aS'0.40'
p1594
aS'105.47'
p1595
aS'4306'
p1596
aS'-3.64'
p1597
aS'-163'
p1598
asa(dp1599
S'KLP AksjeGlobal Indeks V'
p1600
(lp1601
S'NOK'
p1602
aS'6.8995'
p1603
aS'1051.39'
p1604
aS'7254'
p1605
aS'1.27'
p1606
aS'1087.65'
p1607
aS'7504'
p1608
aS'3.45'
p1609
aS'250'
p1610
asS'KLP AksjeFremvoksende Markeder Indeks II'
p1611
(lp1612
S'NOK'
p1613
aS'3.4003'
p1614
aS'1514.57'
p1615
aS'5150'
p1616
aS'0.67'
p1617
aS'1517.94'
p1618
aS'5161'
p1619
aS'0.22'
p1620
aS'11'
p1621
asS'Alfred Berg Gambak'
p1622
(lp1623
S'NOK'
p1624
aS'0.2470'
p1625
aS'23173.37'
p1626
aS'5724'
p1627
aS'0.67'
p1628
aS'26113.00'
p1629
aS'6450'
p1630
aS'12.69'
p1631
aS'726'
p1632
asS'Delphi Nordic'
p1633
(lp1634
S'NOK'
p1635
aS'0.1754'
p1636
aS'29608.42'
p1637
aS'5193'
p1638
aS'0.70'
p1639
aS'29613.10'
p1640
aS'5194'
p1641
aS'0.02'
p1642
aS'1'
asS'date'
p1643
(lp1644
F1481558691.9516439
aS'12.12.16'
p1645
asg3
(lp1646
S'NOK'
p1647
aS'7.3194'
p1648
aS'938.52'
p1649
aS'6869'
p1650
aS'1.31'
p1651
aS'1024.76'
p1652
aS'7501'
p1653
aS'9.19'
p1654
aS'631'
p1655
asS'SKAGEN Focus A'
p1656
(lp1657
S'NOK'
p1658
aS'63.9429'
p1659
aS'98.29'
p1660
aS'6285'
p1661
aS'0.51'
p1662
aS'106.50'
p1663
aS'6810'
p1664
aS'8.35'
p1665
aS'525'
p1666
asS'Alfred Berg Nordisk Eiendom C'
p1667
(lp1668
S'NOK'
p1669
aS'40.8312'
p1670
aS'109.46'
p1671
aS'4469'
p1672
aS'1.19'
p1673
aS'106.72'
p1674
aS'4358'
p1675
aS'-2.50'
p1676
aS'-112'
p1677
asa(dp1678
S'KLP AksjeGlobal Indeks V'
p1679
(lp1680
S'NOK'
p1681
aS'6.8995'
p1682
aS'1051.39'
p1683
aS'7254'
p1684
aS'-1.03'
p1685
aS'1076.44'
p1686
aS'7427'
p1687
aS'2.38'
p1688
aS'173'
p1689
asS'KLP AksjeFremvoksende Markeder Indeks II'
p1690
(lp1691
S'NOK'
p1692
aS'3.4003'
p1693
aS'1514.57'
p1694
aS'5150'
p1695
aS'-1.72'
p1696
aS'1491.88'
p1697
aS'5073'
p1698
aS'-1.50'
p1699
aS'-77'
p1700
asS'Alfred Berg Gambak'
p1701
(lp1702
S'NOK'
p1703
aS'0.2470'
p1704
aS'23173.37'
p1705
aS'5724'
p1706
aS'0.11'
p1707
aS'26141.38'
p1708
aS'6457'
p1709
aS'12.81'
p1710
aS'733'
p1711
asS'Delphi Nordic'
p1712
(lp1713
S'NOK'
p1714
aS'0.1754'
p1715
aS'29608.42'
p1716
aS'5193'
p1717
aS'-0.26'
p1718
aS'29536.09'
p1719
aS'5181'
p1720
aS'-0.24'
p1721
aS'-13'
p1722
asS'date'
p1723
(lp1724
F1481640006.9935949
aS'13.12.16'
p1725
asg3
(lp1726
S'NOK'
p1727
aS'7.3194'
p1728
aS'938.52'
p1729
aS'6869'
p1730
aS'-1.03'
p1731
aS'1014.23'
p1732
aS'7424'
p1733
aS'8.07'
p1734
aS'554'
p1735
asS'SKAGEN Focus A'
p1736
(lp1737
S'NOK'
p1738
aS'63.9429'
p1739
aS'98.29'
p1740
aS'6285'
p1741
aS'-0.58'
p1742
aS'105.88'
p1743
aS'6770'
p1744
aS'7.72'
p1745
aS'485'
p1746
asS'Alfred Berg Nordisk Eiendom C'
p1747
(lp1748
S'NOK'
p1749
aS'40.8312'
p1750
aS'109.46'
p1751
aS'4469'
p1752
aS'-1.91'
p1753
aS'104.68'
p1754
aS'4274'
p1755
aS'-4.36'
p1756
aS'-195'
p1757
asa(dp1758
S'KLP AksjeGlobal Indeks V'
p1759
(lp1760
S'NOK'
p1761
aS'6.8995'
p1762
aS'1051.39'
p1763
aS'7254'
p1764
aS'0.51'
p1765
aS'1081.97'
p1766
aS'7465'
p1767
aS'2.91'
p1768
aS'211'
p1769
asS'KLP AksjeFremvoksende Markeder Indeks II'
p1770
(lp1771
S'NOK'
p1772
aS'3.4003'
p1773
aS'1514.57'
p1774
aS'5150'
p1775
aS'0.32'
p1776
aS'1496.64'
p1777
aS'5089'
p1778
aS'-1.18'
p1779
aS'-61'
p1780
asS'Alfred Berg Gambak'
p1781
(lp1782
S'NOK'
p1783
aS'0.2470'
p1784
aS'23173.37'
p1785
aS'5724'
p1786
aS'0.09'
p1787
aS'26163.74'
p1788
aS'6462'
p1789
aS'12.90'
p1790
aS'739'
p1791
asS'Delphi Nordic'
p1792
(lp1793
S'NOK'
p1794
aS'0.1754'
p1795
aS'29608.42'
p1796
aS'5193'
p1797
aS'0.15'
p1798
aS'29613.91'
p1799
aS'5194'
p1800
aS'0.02'
p1801
aS'1'
asS'date'
p1802
(lp1803
F1481753792.9399171
aS'14.12.16'
p1804
asg3
(lp1805
S'NOK'
p1806
aS'7.3194'
p1807
aS'938.52'
p1808
aS'6869'
p1809
aS'-0.03'
p1810
aS'1013.91'
p1811
aS'7421'
p1812
aS'8.03'
p1813
aS'552'
p1814
asS'SKAGEN Focus A'
p1815
(lp1816
S'NOK'
p1817
aS'63.9429'
p1818
aS'98.29'
p1819
aS'6285'
p1820
aS'0.53'
p1821
aS'106.81'
p1822
aS'6830'
p1823
aS'8.67'
p1824
aS'545'
p1825
asS'Alfred Berg Nordisk Eiendom C'
p1826
(lp1827
S'NOK'
p1828
aS'40.8312'
p1829
aS'109.46'
p1830
aS'4469'
p1831
aS'0.51'
p1832
aS'105.62'
p1833
aS'4313'
p1834
aS'-3.50'
p1835
aS'-157'
p1836
asa(dp1837
g3
(lp1838
S'NOK'
p1839
aS'7.3194'
p1840
aS'938.52'
p1841
aS'6869'
p1842
aS'0.43'
p1843
aS'1018.30'
p1844
aS'7453'
p1845
aS'8.50'
p1846
aS'584'
p1847
asS'KLP AksjeGlobal Indeks V'
p1848
(lp1849
S'NOK'
p1850
aS'6.8995'
p1851
aS'1051.39'
p1852
aS'7254'
p1853
aS'0.04'
p1854
aS'1082.39'
p1855
aS'7468'
p1856
aS'2.95'
p1857
aS'214'
p1858
asS'KLP AksjeFremvoksende Markeder Indeks II'
p1859
(lp1860
S'NOK'
p1861
aS'3.4003'
p1862
aS'1514.57'
p1863
aS'5150'
p1864
aS'0.11'
p1865
aS'1498.32'
p1866
aS'5095'
p1867
aS'-1.07'
p1868
aS'-55'
p1869
asS'Global X MSCI SuperDividend EAFE ETF'
p1870
(lp1871
S'USD'
p1872
aS'38'
p1873
aS'15.83'
p1874
aS'0.00'
p1875
aS'15.71'
p1876
aS'0601'
p1877
aS'5209'
p1878
aS'0.32'
p1879
aS'66'
p1880
asS'Alfred Berg Gambak'
p1881
(lp1882
S'NOK'
p1883
aS'0.2470'
p1884
aS'23173.37'
p1885
aS'5724'
p1886
aS'-0.63'
p1887
aS'25999.55'
p1888
aS'6422'
p1889
aS'12.20'
p1890
aS'698'
p1891
asS'Delphi Nordic'
p1892
(lp1893
S'NOK'
p1894
aS'0.1754'
p1895
aS'29608.42'
p1896
aS'5193'
p1897
aS'0.15'
p1898
aS'29613.91'
p1899
aS'5194'
p1900
aS'0.02'
p1901
aS'1.00001'
p1902
asS'date'
p1903
(lp1904
F1481819104.043509
aS'15.12.16'
p1905
asS'Global X SuperIncome Preferred ETF'
p1906
(lp1907
S'USD'
p1908
aS'47'
p1909
aS'13.43'
p1910
aS'-0.23'
p1911
aS'12.77'
p1912
aS'0597'
p1913
aS'5176'
p1914
aS'0.28'
p1915
aS'58'
p1916
asS'SKAGEN Focus A'
p1917
(lp1918
S'NOK'
p1919
aS'63.9429'
p1920
aS'98.29'
p1921
aS'6285'
p1922
aS'0.53'
p1923
aS'106.81'
p1924
aS'6830'
p1925
aS'8.67'
p1926
aS'545.00001'
p1927
asS'Alfred Berg Nordisk Eiendom C'
p1928
(lp1929
S'NOK'
p1930
aS'40.8312'
p1931
aS'109.46'
p1932
aS'4469'
p1933
aS'0.51'
p1934
aS'105.62'
p1935
aS'4313'
p1936
aS'-3.50'
p1937
aS'-157.00001'
p1938
asa(dp1939
g3
(lp1940
S'NOK'
p1941
aS'7.3194'
p1942
aS'938.52'
p1943
aS'6869'
p1944
aS'2.13'
p1945
aS'1039.94'
p1946
aS'7612'
p1947
aS'10.81'
p1948
aS'742'
p1949
asS'KLP AksjeGlobal Indeks V'
p1950
(lp1951
S'NOK'
p1952
aS'6.8995'
p1953
aS'1051.39'
p1954
aS'7254'
p1955
aS'1.80'
p1956
aS'1101.92'
p1957
aS'7603'
p1958
aS'4.81'
p1959
aS'349'
p1960
asS'KLP AksjeFremvoksende Markeder Indeks II'
p1961
(lp1962
S'NOK'
p1963
aS'3.4003'
p1964
aS'1514.57'
p1965
aS'5150'
p1966
aS'0.72'
p1967
aS'1509.17'
p1968
aS'5132'
p1969
aS'-0.36'
p1970
aS'-18'
p1971
asS'Global X MSCI SuperDividend EAFE ETF'
p1972
(lp1973
S'USD'
p1974
aS'75'
p1975
aS'15.83'
p1976
aS'0.00'
p1977
aS'15.71'
p1978
aS'1202'
p1979
aS'10454'
p1980
aS'0.82'
p1981
aS'168'
p1982
asS'Alfred Berg Gambak'
p1983
(lp1984
S'NOK'
p1985
aS'0.2470'
p1986
aS'23173.37'
p1987
aS'5724'
p1988
aS'-0.35'
p1989
aS'25907.24'
p1990
aS'6399'
p1991
aS'11.80'
p1992
aS'675'
p1993
asS'Delphi Nordic'
p1994
(lp1995
S'NOK'
p1996
aS'0.1754'
p1997
aS'29608.42'
p1998
aS'5193'
p1999
aS'0.28'
p2000
aS'29696.40'
p2001
aS'5209'
p2002
aS'0.30'
p2003
aS'15'
p2004
asS'date'
p2005
(lp2006
F1481898735.103678
aS'16.12.16'
p2007
asS'Alfred Berg Nordisk Eiendom C'
p2008
(lp2009
S'NOK'
p2010
aS'40.8312'
p2011
aS'109.46'
p2012
aS'4469'
p2013
aS'-1.51'
p2014
aS'104.03'
p2015
aS'4248'
p2016
aS'-4.96'
p2017
aS'-222'
p2018
asS'SKAGEN Focus A'
p2019
(lp2020
S'NOK'
p2021
aS'63.9429'
p2022
aS'98.29'
p2023
aS'6285'
p2024
aS'0.65'
p2025
aS'107.50'
p2026
aS'6874'
p2027
aS'9.37'
p2028
aS'589'
p2029
asS'Global X SuperIncome Preferred ETF'
p2030
(lp2031
S'USD'
p2032
aS'94'
p2033
aS'13.43'
p2034
aS'-0.08'
p2035
aS'12.80'
p2036
aS'1197'
p2037
aS'10410'
p2038
aS'0.86'
p2039
aS'175'
p2040
asa(dp2041
g3
(lp2042
S'NOK'
p2043
aS'7.3194'
p2044
aS'938.52'
p2045
aS'6869'
p2046
aS'0.16'
p2047
aS'1041.65'
p2048
aS'7624'
p2049
aS'10.99'
p2050
aS'755'
p2051
asS'KLP AksjeGlobal Indeks V'
p2052
(lp2053
S'NOK'
p2054
aS'6.8995'
p2055
aS'1051.39'
p2056
aS'7254'
p2057
aS'0.41'
p2058
aS'1106.41'
p2059
aS'7634'
p2060
aS'5.23'
p2061
aS'380'
p2062
asS'KLP AksjeFremvoksende Markeder Indeks II'
p2063
(lp2064
S'NOK'
p2065
aS'3.4003'
p2066
aS'1514.57'
p2067
aS'5150'
p2068
aS'0.16'
p2069
aS'1511.64'
p2070
aS'5140'
p2071
aS'-0.19'
p2072
aS'-10'
p2073
asS'Global X MSCI SuperDividend EAFE ETF'
p2074
(lp2075
S'USD'
p2076
aS'115'
p2077
aS'15.83'
p2078
aS'0.00'
p2079
aS'15.71'
p2080
aS'1804'
p2081
aS'15675'
p2082
aS'1.20'
p2083
aS'246'
p2084
asS'Alfred Berg Gambak'
p2085
(lp2086
S'NOK'
p2087
aS'0.2470'
p2088
aS'23173.37'
p2089
aS'5724'
p2090
aS'0.23'
p2091
aS'25965.56'
p2092
aS'6413'
p2093
aS'12.05'
p2094
aS'690'
p2095
asS'Delphi Nordic'
p2096
(lp2097
S'NOK'
p2098
aS'0.1754'
p2099
aS'29608.42'
p2100
aS'5193'
p2101
aS'1.07'
p2102
aS'30014.98'
p2103
aS'5265'
p2104
aS'1.37'
p2105
aS'71'
p2106
asS'date'
p2107
(lp2108
F1482162414.306299
aS'19.12.16'
p2109
asS'Global X SuperIncome Preferred ETF'
p2110
(lp2111
S'USD'
p2112
aS'140'
p2113
aS'13.43'
p2114
aS'0.00'
p2115
aS'12.83'
p2116
aS'1800'
p2117
aS'15647'
p2118
aS'1.43'
p2119
aS'293'
p2120
asS'SKAGEN Focus A'
p2121
(lp2122
S'NOK'
p2123
aS'63.9429'
p2124
aS'98.29'
p2125
aS'6285'
p2126
aS'1.04'
p2127
aS'108.62'
p2128
aS'6945'
p2129
aS'10.50'
p2130
aS'660'
p2131
asS'Alfred Berg Nordisk Eiendom C'
p2132
(lp2133
S'NOK'
p2134
aS'40.8312'
p2135
aS'109.46'
p2136
aS'4469'
p2137
aS'0.97'
p2138
aS'105.04'
p2139
aS'4289'
p2140
aS'-4.03'
p2141
aS'-180'
p2142
asa(dp2143
g3
(lp2144
S'NOK'
p2145
aS'7.3194'
p2146
aS'938.52'
p2147
aS'6869'
p2148
aS'0.27'
p2149
aS'1044.48'
p2150
aS'7645'
p2151
aS'11.29'
p2152
aS'776'
p2153
asS'KLP AksjeGlobal Indeks V'
p2154
(lp2155
S'NOK'
p2156
aS'6.8995'
p2157
aS'1051.39'
p2158
aS'7254'
p2159
aS'-0.23'
p2160
aS'1103.83'
p2161
aS'7616'
p2162
aS'4.99'
p2163
aS'362'
p2164
asS'KLP AksjeFremvoksende Markeder Indeks II'
p2165
(lp2166
S'NOK'
p2167
aS'3.4003'
p2168
aS'1514.57'
p2169
aS'5150'
p2170
aS'-1.06'
p2171
aS'1495.59'
p2172
aS'5085'
p2173
aS'-1.25'
p2174
aS'-65'
p2175
asS'Global X MSCI SuperDividend EAFE ETF'
p2176
(lp2177
S'USD'
p2178
aS'153'
p2179
aS'15.83'
p2180
aS'0.00'
p2181
aS'15.71'
p2182
aS'2404'
p2183
aS'20915'
p2184
aS'1.67'
p2185
aS'344'
p2186
asS'Alfred Berg Gambak'
p2187
(lp2188
S'NOK'
p2189
aS'0.2470'
p2190
aS'23173.37'
p2191
aS'5724'
p2192
aS'-0.40'
p2193
aS'25862.08'
p2194
aS'6388'
p2195
aS'11.60'
p2196
aS'664'
p2197
asS'Delphi Nordic'
p2198
(lp2199
S'NOK'
p2200
aS'0.1754'
p2201
aS'29608.42'
p2202
aS'5193'
p2203
aS'-0.11'
p2204
aS'29981.81'
p2205
aS'5259'
p2206
aS'1.26'
p2207
aS'65'
p2208
asS'date'
p2209
(lp2210
F1482251856.386945
aS'20.12.16'
p2211
asS'Alfred Berg Nordisk Eiendom C'
p2212
(lp2213
S'NOK'
p2214
aS'40.8312'
p2215
aS'109.46'
p2216
aS'4469'
p2217
aS'0.61'
p2218
aS'105.68'
p2219
aS'4315'
p2220
aS'-3.45'
p2221
aS'-154'
p2222
asS'SKAGEN Focus A'
p2223
(lp2224
S'NOK'
p2225
aS'63.9429'
p2226
aS'98.29'
p2227
aS'6285'
p2228
aS'-0.29'
p2229
aS'108.30'
p2230
aS'6925'
p2231
aS'10.18'
p2232
aS'640'
p2233
asS'Global X SuperIncome Preferred ETF'
p2234
(lp2235
S'USD'
p2236
aS'187'
p2237
aS'13.43'
p2238
aS'0.39'
p2239
aS'12.88'
p2240
aS'2409'
p2241
aS'20958'
p2242
aS'2.38'
p2243
aS'487'
p2244
asa(dp2245
g3
(lp2246
S'NOK'
p2247
aS'7.3194'
p2248
aS'938.52'
p2249
aS'6869'
p2250
aS'0.19'
p2251
aS'1046.42'
p2252
aS'7659'
p2253
aS'11.50'
p2254
aS'790'
p2255
asS'KLP AksjeGlobal Indeks V'
p2256
(lp2257
S'NOK'
p2258
aS'6.8995'
p2259
aS'1051.39'
p2260
aS'7254'
p2261
aS'0.57'
p2262
aS'1110.08'
p2263
aS'7659'
p2264
aS'5.58'
p2265
aS'405'
p2266
asS'KLP AksjeFremvoksende Markeder Indeks II'
p2267
(lp2268
S'NOK'
p2269
aS'3.4003'
p2270
aS'1514.57'
p2271
aS'5150'
p2272
aS'0.47'
p2273
aS'1502.56'
p2274
aS'5109'
p2275
aS'-0.79'
p2276
aS'-41'
p2277
asS'Global X MSCI SuperDividend EAFE ETF'
p2278
(lp2279
S'USD'
p2280
aS'153'
p2281
aS'15.83'
p2282
aS'0.00'
p2283
aS'15.71'
p2284
aS'2404'
p2285
aS'20847'
p2286
aS'1.34'
p2287
aS'275'
p2288
asS'Alfred Berg Gambak'
p2289
(lp2290
S'NOK'
p2291
aS'0.2470'
p2292
aS'23173.37'
p2293
aS'5724'
p2294
aS'-0.11'
p2295
aS'25834.85'
p2296
aS'6381'
p2297
aS'11.49'
p2298
aS'657'
p2299
asS'Delphi Nordic'
p2300
(lp2301
S'NOK'
p2302
aS'0.1754'
p2303
aS'29608.42'
p2304
aS'5193'
p2305
aS'0.25'
p2306
aS'30076.83'
p2307
aS'5275'
p2308
aS'1.58'
p2309
aS'82'
p2310
asS'date'
p2311
(lp2312
F1482348443.097964
aS'21.12.16'
p2313
asS'Global X SuperIncome Preferred ETF'
p2314
(lp2315
S'USD'
p2316
aS'187'
p2317
aS'13.43'
p2318
aS'0.31'
p2319
aS'12.89'
p2320
aS'2410'
p2321
aS'20906'
p2322
aS'2.12'
p2323
aS'435'
p2324
asS'SKAGEN Focus A'
p2325
(lp2326
S'NOK'
p2327
aS'63.9429'
p2328
aS'98.29'
p2329
aS'6285'
p2330
aS'-0.06'
p2331
aS'108.77'
p2332
aS'6955'
p2333
aS'10.66'
p2334
aS'670'
p2335
asS'Alfred Berg Nordisk Eiendom C'
p2336
(lp2337
S'NOK'
p2338
aS'40.8312'
p2339
aS'109.46'
p2340
aS'4469'
p2341
aS'-0.01'
p2342
aS'105.67'
p2343
aS'4315'
p2344
aS'-3.46'
p2345
aS'-155'
p2346
asa(dp2347
g3
(lp2348
S'NOK'
p2349
aS'7.3194'
p2350
aS'938.52'
p2351
aS'6869'
p2352
aS'-0.65'
p2353
aS'1039.64'
p2354
aS'7610'
p2355
aS'10.77'
p2356
aS'740'
p2357
asS'KLP AksjeGlobal Indeks V'
p2358
(lp2359
S'NOK'
p2360
aS'6.8995'
p2361
aS'1051.39'
p2362
aS'7254'
p2363
aS'-0.49'
p2364
aS'1104.68'
p2365
aS'7622'
p2366
aS'5.07'
p2367
aS'368'
p2368
asS'KLP AksjeFremvoksende Markeder Indeks II'
p2369
(lp2370
S'NOK'
p2371
aS'3.4003'
p2372
aS'1514.57'
p2373
aS'5150'
p2374
aS'-0.46'
p2375
aS'1495.60'
p2376
aS'5085'
p2377
aS'-1.25'
p2378
aS'-65'
p2379
asS'Global X MSCI SuperDividend EAFE ETF'
p2380
(lp2381
S'USD'
p2382
aS'153'
p2383
aS'15.83'
p2384
aS'0.00'
p2385
aS'15.71'
p2386
aS'2404'
p2387
aS'20955'
p2388
aS'1.86'
p2389
aS'383'
p2390
asS'Alfred Berg Gambak'
p2391
(lp2392
S'NOK'
p2393
aS'0.2470'
p2394
aS'23173.37'
p2395
aS'5724'
p2396
aS'-0.16'
p2397
aS'25794.46'
p2398
aS'6371'
p2399
aS'11.31'
p2400
aS'647'
p2401
asS'Delphi Nordic'
p2402
(lp2403
S'NOK'
p2404
aS'0.1754'
p2405
aS'29608.42'
p2406
aS'5193'
p2407
aS'0.42'
p2408
aS'30203.55'
p2409
aS'5298'
p2410
aS'2.01'
p2411
aS'104'
p2412
asS'date'
p2413
(lp2414
F1482483275.268944
aS'23.12.16'
p2415
asS'Alfred Berg Nordisk Eiendom C'
p2416
(lp2417
S'NOK'
p2418
aS'30.6234'
p2419
aS'109.46'
p2420
aS'3352'
p2421
aS'0.93'
p2422
aS'107.04'
p2423
aS'3278'
p2424
aS'-2.21'
p2425
aS'-74'
p2426
asS'SKAGEN Focus A'
p2427
(lp2428
S'NOK'
p2429
aS'63.9429'
p2430
aS'98.29'
p2431
aS'6285'
p2432
aS'0.11'
p2433
aS'108.89'
p2434
aS'6963'
p2435
aS'10.78'
p2436
aS'678'
p2437
asS'Global X SuperIncome Preferred ETF'
p2438
(lp2439
S'USD'
p2440
aS'187'
p2441
aS'13.43'
p2442
aS'-0.08'
p2443
aS'12.91'
p2444
aS'2414'
p2445
aS'21047'
p2446
aS'2.81'
p2447
aS'575'
p2448
asa(dp2449
g3
(lp2450
S'NOK'
p2451
aS'7.3194'
p2452
aS'938.52'
p2453
aS'6869'
p2454
aS'0.36'
p2455
aS'1041.63'
p2456
aS'7624'
p2457
aS'10.99'
p2458
aS'755'
p2459
asS'KLP AksjeGlobal Indeks V'
p2460
(lp2461
S'NOK'
p2462
aS'6.8995'
p2463
aS'1051.39'
p2464
aS'7254'
p2465
aS'-0.02'
p2466
aS'1108.19'
p2467
aS'7646'
p2468
aS'5.40'
p2469
aS'392'
p2470
asS'KLP AksjeFremvoksende Markeder Indeks II'
p2471
(lp2472
S'NOK'
p2473
aS'3.4003'
p2474
aS'1514.57'
p2475
aS'5150'
p2476
aS'-0.23'
p2477
aS'1484.31'
p2478
aS'5047'
p2479
aS'-2.00'
p2480
aS'-103'
p2481
asS'Global X MSCI SuperDividend EAFE ETF'
p2482
(lp2483
S'USD'
p2484
aS'153'
p2485
aS'15.83'
p2486
aS'0.00'
p2487
aS'15.71'
p2488
aS'2404'
p2489
aS'20947'
p2490
aS'1.82'
p2491
aS'375'
p2492
asS'Alfred Berg Gambak'
p2493
(lp2494
S'NOK'
p2495
aS'0.2470'
p2496
aS'23173.37'
p2497
aS'5724'
p2498
aS'0.31'
p2499
aS'25918.95'
p2500
aS'6402'
p2501
aS'11.85'
p2502
aS'678'
p2503
asS'Delphi Nordic'
p2504
(lp2505
S'NOK'
p2506
aS'0.1754'
p2507
aS'29608.42'
p2508
aS'5193'
p2509
aS'-0.15'
p2510
aS'30159.22'
p2511
aS'5290'
p2512
aS'1.86'
p2513
aS'97'
p2514
asS'date'
p2515
(lp2516
F1482850150.5319221
aS'27.12.16'
p2517
asS'Global X SuperIncome Preferred ETF'
p2518
(lp2519
S'USD'
p2520
aS'187'
p2521
aS'13.43'
p2522
aS'-0.23'
p2523
aS'12.92'
p2524
aS'2416'
p2525
aS'21055'
p2526
aS'2.85'
p2527
aS'584'
p2528
asS'SKAGEN Focus A'
p2529
(lp2530
S'NOK'
p2531
aS'63.9429'
p2532
aS'98.29'
p2533
aS'6285'
p2534
aS'0.25'
p2535
aS'109.17'
p2536
aS'6981'
p2537
aS'11.06'
p2538
aS'695'
p2539
asS'Alfred Berg Nordisk Eiendom C'
p2540
(lp2541
S'NOK'
p2542
aS'30.6234'
p2543
aS'109.46'
p2544
aS'3352'
p2545
aS'0.44'
p2546
aS'107.51'
p2547
aS'3292'
p2548
aS'-1.78'
p2549
aS'-60'
p2550
asa(dp2551
g3
(lp2552
S'NOK'
p2553
aS'7.3194'
p2554
aS'938.52'
p2555
aS'6869'
p2556
aS'0.00'
p2557
aS'1049.12'
p2558
aS'7679'
p2559
aS'11.78'
p2560
aS'810'
p2561
asS'KLP AksjeGlobal Indeks V'
p2562
(lp2563
S'NOK'
p2564
aS'6.8995'
p2565
aS'1051.39'
p2566
aS'7254'
p2567
aS'0.00'
p2568
aS'1111.74'
p2569
aS'7670'
p2570
aS'5.74'
p2571
aS'416'
p2572
asS'KLP AksjeFremvoksende Markeder Indeks II'
p2573
(lp2574
S'NOK'
p2575
aS'3.4003'
p2576
aS'1514.57'
p2577
aS'5150'
p2578
aS'0.00'
p2579
aS'1493.39'
p2580
aS'5078'
p2581
aS'-1.40'
p2582
aS'-72'
p2583
asS'Global X MSCI SuperDividend EAFE ETF'
p2584
(lp2585
S'USD'
p2586
aS'153'
p2587
aS'15.83'
p2588
aS'0.00'
p2589
aS'15.71'
p2590
aS'2404'
p2591
aS'20967'
p2592
aS'1.92'
p2593
aS'395'
p2594
asS'Alfred Berg Gambak'
p2595
(lp2596
S'NOK'
p2597
aS'0.2470'
p2598
aS'23173.37'
p2599
aS'5724'
p2600
aS'0.00'
p2601
aS'26091.45'
p2602
aS'6445'
p2603
aS'12.59'
p2604
aS'721'
p2605
asS'Delphi Nordic'
p2606
(lp2607
S'NOK'
p2608
aS'0.1754'
p2609
aS'29608.42'
p2610
aS'5193'
p2611
aS'0.00'
p2612
aS'30373.12'
p2613
aS'5327'
p2614
aS'2.58'
p2615
aS'134'
p2616
asS'date'
p2617
(lp2618
F1482935739.3369429
aS'28.12.16'
p2619
asS'Alfred Berg Nordisk Eiendom C'
p2620
(lp2621
S'NOK'
p2622
aS'30.6234'
p2623
aS'109.46'
p2624
aS'3352'
p2625
aS'0.00'
p2626
aS'108.02'
p2627
aS'3308'
p2628
aS'-1.31'
p2629
aS'-44'
p2630
asS'SKAGEN Focus A'
p2631
(lp2632
S'NOK'
p2633
aS'63.9429'
p2634
aS'98.29'
p2635
aS'6285'
p2636
aS'0.00'
p2637
aS'109.64'
p2638
aS'7010'
p2639
aS'11.54'
p2640
aS'725'
p2641
asS'Global X SuperIncome Preferred ETF'
p2642
(lp2643
S'USD'
p2644
aS'187'
p2645
aS'13.43'
p2646
aS'-0.62'
p2647
aS'12.81'
p2648
aS'2395'
p2649
aS'20895'
p2650
aS'2.07'
p2651
aS'424'
p2652
asa(dp2653
g3
(lp2654
S'NOK'
p2655
aS'7.7594'
p2656
aS'944.59'
p2657
aS'7329'
p2658
aS'-0.35'
p2659
aS'1045.45'
p2660
aS'8112'
p2661
aS'10.68'
p2662
aS'783'
p2663
asS'KLP AksjeGlobal Indeks V'
p2664
(lp2665
S'NOK'
p2666
aS'6.8995'
p2667
aS'1051.39'
p2668
aS'7254'
p2669
aS'-0.27'
p2670
aS'1108.78'
p2671
aS'7650'
p2672
aS'5.46'
p2673
aS'396'
p2674
asS'KLP AksjeFremvoksende Markeder Indeks II'
p2675
(lp2676
S'NOK'
p2677
aS'3.4003'
p2678
aS'1514.57'
p2679
aS'5150'
p2680
aS'1.21'
p2681
aS'1511.43'
p2682
aS'5139'
p2683
aS'-0.21'
p2684
aS'-11'
p2685
asS'Global X MSCI SuperDividend EAFE ETF'
p2686
(lp2687
S'USD'
p2688
aS'153'
p2689
aS'15.83'
p2690
aS'0.00'
p2691
aS'15.71'
p2692
aS'2404'
p2693
aS'20822'
p2694
aS'1.22'
p2695
aS'250'
p2696
asS'Alfred Berg Gambak'
p2697
(lp2698
S'NOK'
p2699
aS'0.2470'
p2700
aS'23173.37'
p2701
aS'5724'
p2702
aS'0.00'
p2703
aS'26091.65'
p2704
aS'6445'
p2705
aS'12.59'
p2706
aS'721'
p2707
asS'Delphi Nordic'
p2708
(lp2709
S'NOK'
p2710
aS'0.1754'
p2711
aS'29608.42'
p2712
aS'5193'
p2713
aS'-0.02'
p2714
aS'30494.45'
p2715
aS'5349'
p2716
aS'2.99'
p2717
aS'155'
p2718
asS'date'
p2719
(lp2720
F1483032550.6972411
aS'29.12.16'
p2721
asS'Global X SuperIncome Preferred ETF'
p2722
(lp2723
S'USD'
p2724
aS'187'
p2725
aS'13.43'
p2726
aS'0.63'
p2727
aS'12.84'
p2728
aS'2401'
p2729
aS'20800'
p2730
aS'1.61'
p2731
aS'329'
p2732
asS'SKAGEN Focus A'
p2733
(lp2734
S'NOK'
p2735
aS'64.8551'
p2736
aS'98.45'
p2737
aS'6385'
p2738
aS'-0.01'
p2739
aS'109.63'
p2740
aS'7110'
p2741
aS'11.35'
p2742
aS'725'
p2743
asS'Alfred Berg Nordisk Eiendom C'
p2744
(lp2745
S'NOK'
p2746
aS'30.6234'
p2747
aS'109.46'
p2748
aS'3352'
p2749
aS'0.49'
p2750
aS'109.11'
p2751
aS'3341'
p2752
aS'-0.32'
p2753
aS'-11'
p2754
asa(dp2755
g3
(lp2756
S'NOK'
p2757
aS'7.7594'
p2758
aS'944.59'
p2759
aS'7329'
p2760
aS'-0.71'
p2761
aS'1038.01'
p2762
aS'8054'
p2763
aS'9.89'
p2764
aS'725'
p2765
asS'KLP AksjeGlobal Indeks V'
p2766
(lp2767
S'NOK'
p2768
aS'7.2783'
p2769
aS'1054.38'
p2770
aS'7674'
p2771
aS'-0.81'
p2772
aS'1099.85'
p2773
aS'8005'
p2774
aS'4.31'
p2775
aS'331'
p2776
asS'KLP AksjeFremvoksende Markeder Indeks II'
p2777
(lp2778
S'NOK'
p2779
aS'3.5857'
p2780
aS'1514.35'
p2781
aS'5430'
p2782
aS'-0.08'
p2783
aS'1510.23'
p2784
aS'5415'
p2785
aS'-0.27'
p2786
aS'-15'
p2787
asS'Global X MSCI SuperDividend EAFE ETF'
p2788
(lp2789
S'USD'
p2790
aS'153'
p2791
aS'15.83'
p2792
aS'0.00'
p2793
aS'15.71'
p2794
aS'2404'
p2795
aS'20739'
p2796
aS'0.81'
p2797
aS'167'
p2798
asS'Alfred Berg Gambak'
p2799
(lp2800
S'NOK'
p2801
aS'0.2646'
p2802
aS'23370.46'
p2803
aS'6184'
p2804
aS'0.11'
p2805
aS'26120.16'
p2806
aS'6911'
p2807
aS'11.77'
p2808
aS'728'
p2809
asS'Delphi Nordic'
p2810
(lp2811
S'NOK'
p2812
aS'0.1813'
p2813
aS'29637.71'
p2814
aS'5373'
p2815
aS'0.39'
p2816
aS'30612.60'
p2817
aS'5550'
p2818
aS'3.29'
p2819
aS'177'
p2820
asS'date'
p2821
(lp2822
F1483201102.28596
aS'31.12.16'
p2823
asS'Alfred Berg Nordisk Eiendom C'
p2824
(lp2825
S'NOK'
p2826
aS'31.5399'
p2827
aS'109.45'
p2828
aS'3452'
p2829
aS'1.28'
p2830
aS'110.51'
p2831
aS'3485'
p2832
aS'0.97'
p2833
aS'34'
p2834
asS'SKAGEN Focus A'
p2835
(lp2836
S'NOK'
p2837
aS'64.8551'
p2838
aS'98.45'
p2839
aS'6385'
p2840
aS'-0.90'
p2841
aS'108.64'
p2842
aS'7046'
p2843
aS'10.35'
p2844
aS'661'
p2845
asS'Global X SuperIncome Preferred ETF'
p2846
(lp2847
S'USD'
p2848
aS'187'
p2849
aS'13.43'
p2850
aS'0.00'
p2851
aS'12.80'
p2852
aS'2394'
p2853
aS'20652'
p2854
aS'0.88'
p2855
aS'181'
p2856
asa(dp2857
S'KLP AksjeGlobal Indeks V'
p2858
(lp2859
S'NOK'
p2860
aS'7.2783'
p2861
aS'1054.38'
p2862
aS'7674'
p2863
aS'-0.64'
p2864
aS'1092.80'
p2865
aS'7954'
p2866
aS'3.64'
p2867
aS'280'
p2868
asS'KLP AksjeFremvoksende Markeder Indeks II'
p2869
(lp2870
S'NOK'
p2871
aS'3.5857'
p2872
aS'1514.35'
p2873
aS'5430'
p2874
aS'-0.11'
p2875
aS'1508.63'
p2876
aS'5409'
p2877
aS'-0.38'
p2878
aS'-21'
p2879
asS'Global X MSCI SuperDividend EAFE ETF'
p2880
(lp2881
S'USD'
p2882
aS'153'
p2883
aS'15.83'
p2884
aS'0.00'
p2885
aS'15.71'
p2886
aS'2404'
p2887
aS'20800'
p2888
aS'1.11'
p2889
aS'228'
p2890
asS'Alfred Berg Gambak'
p2891
(lp2892
S'NOK'
p2893
aS'0.2646'
p2894
aS'23370.46'
p2895
aS'6184'
p2896
aS'-0.07'
p2897
aS'26101.20'
p2898
aS'6906'
p2899
aS'11.68'
p2900
aS'723'
p2901
asS'Delphi Nordic'
p2902
(lp2903
S'NOK'
p2904
aS'0.1813'
p2905
aS'29637.71'
p2906
aS'5373'
p2907
aS'1.25'
p2908
aS'30994.59'
p2909
aS'5619'
p2910
aS'4.58'
p2911
aS'246'
p2912
asS'Global X SuperIncome Preferred ETF'
p2913
(lp2914
S'USD'
p2915
aS'187'
p2916
aS'13.43'
p2917
aS'0.00'
p2918
aS'12.80'
p2919
aS'2394'
p2920
aS'20714'
p2921
aS'1.18'
p2922
aS'242'
p2923
asS'date'
p2924
(lp2925
F1483399123.487947
aS'03.01.17'
p2926
asS'Alfred Berg Nordisk Eiendom C'
p2927
(lp2928
S'NOK'
p2929
aS'31.5399'
p2930
aS'109.45'
p2931
aS'3452'
p2932
aS'0.43'
p2933
aS'110.99'
p2934
aS'3501'
p2935
aS'1.41'
p2936
aS'49'
p2937
asS'SKAGEN Focus A'
p2938
(lp2939
S'NOK'
p2940
aS'64.8551'
p2941
aS'98.45'
p2942
aS'6385'
p2943
aS'0.52'
p2944
aS'108.24'
p2945
aS'7020'
p2946
aS'9.95'
p2947
aS'635'
p2948
asS'DNB Teknologi'
p2949
(lp2950
S'NOK'
p2951
aS'7.7594'
p2952
aS'944.59'
p2953
aS'7329'
p2954
aS'-0.58'
p2955
aS'1031.99'
p2956
aS'8008'
p2957
aS'9.25'
p2958
aS'678'
p2959
asa(dp2960
S'DNB Teknologi'
p2961
(lp2962
S'NOK'
p2963
aS'7.7594'
p2964
aS'944.59'
p2965
aS'7329'
p2966
aS'-0.46'
p2967
aS'1043.47'
p2968
aS'8097'
p2969
aS'10.47'
p2970
aS'767'
p2971
asS'KLP AksjeGlobal Indeks V'
p2972
(lp2973
S'NOK'
p2974
aS'7.2783'
p2975
aS'1054.38'
p2976
aS'7674'
p2977
aS'0.00'
p2978
aS'1092.83'
p2979
aS'7954'
p2980
aS'3.65'
p2981
aS'280'
p2982
asS'KLP AksjeFremvoksende Markeder Indeks II'
p2983
(lp2984
S'NOK'
p2985
aS'3.5857'
p2986
aS'1514.35'
p2987
aS'5430'
p2988
aS'0.01'
p2989
aS'1508.77'
p2990
aS'5410'
p2991
aS'-0.37'
p2992
aS'-20'
p2993
asS'Global X MSCI SuperDividend EAFE ETF'
p2994
(lp2995
S'USD'
p2996
aS'153'
p2997
aS'15.83'
p2998
aS'0.00'
p2999
aS'15.71'
p3000
aS'2404'
p3001
aS'20524'
p3002
aS'-0.23'
p3003
aS'-48'
p3004
asS'Alfred Berg Gambak'
p3005
(lp3006
S'NOK'
p3007
aS'0.2646'
p3008
aS'23370.46'
p3009
aS'6184'
p3010
aS'-0.76'
p3011
aS'25977.32'
p3012
aS'6874'
p3013
aS'11.15'
p3014
aS'690'
p3015
asS'Delphi Nordic'
p3016
(lp3017
S'NOK'
p3018
aS'0.1813'
p3019
aS'29637.71'
p3020
aS'5373'
p3021
aS'-0.07'
p3022
aS'30643.96'
p3023
aS'5556'
p3024
aS'3.40'
p3025
aS'182'
p3026
asS'date'
p3027
(lp3028
F1483839764.398088
aS'08.01.17'
p3029
asS'Alfred Berg Nordisk Eiendom C'
p3030
(lp3031
S'NOK'
p3032
aS'31.5399'
p3033
aS'109.45'
p3034
aS'3452'
p3035
aS'-0.74'
p3036
aS'107.57'
p3037
aS'3393'
p3038
aS'-1.71'
p3039
aS'-59'
p3040
asS'SKAGEN Focus A'
p3041
(lp3042
S'NOK'
p3043
aS'64.8551'
p3044
aS'98.45'
p3045
aS'6385'
p3046
aS'-0.51'
p3047
aS'108.66'
p3048
aS'7047'
p3049
aS'10.37'
p3050
aS'662'
p3051
asS'Global X SuperIncome Preferred ETF'
p3052
(lp3053
S'USD'
p3054
aS'187'
p3055
aS'13.43'
p3056
aS'0.00'
p3057
aS'12.99'
p3058
aS'2429'
p3059
aS'20741'
p3060
aS'1.32'
p3061
aS'270'
p3062
asa(dp3063
S'DNB Teknologi'
p3064
(lp3065
S'NOK'
p3066
aS'7.7594'
p3067
aS'944.59'
p3068
aS'7329'
p3069
aS'0.55'
p3070
aS'1053.34'
p3071
aS'8173'
p3072
aS'11.51'
p3073
aS'844'
p3074
asS'KLP AksjeGlobal Indeks V'
p3075
(lp3076
S'NOK'
p3077
aS'7.2783'
p3078
aS'1054.38'
p3079
aS'7674'
p3080
aS'0.18'
p3081
aS'1100.62'
p3082
aS'8011'
p3083
aS'4.39'
p3084
aS'337'
p3085
asS'KLP AksjeFremvoksende Markeder Indeks II'
p3086
(lp3087
S'NOK'
p3088
aS'3.5857'
p3089
aS'1514.35'
p3090
aS'5430'
p3091
aS'0.09'
p3092
aS'1525.29'
p3093
aS'5469'
p3094
aS'0.72'
p3095
aS'39'
p3096
asS'yield'
p3097
(dp3098
S'Global X SuperIncome Preferred ETF'
p3099
F119.94
sS'Global X MSCI SuperDividend EAFE ETF'
p3100
F31.510000000000002
ssS'Global X MSCI SuperDividend EAFE ETF'
p3101
(lp3102
S'USD'
p3103
aS'153'
p3104
aS'15.83'
p3105
aS'0.00'
p3106
aS'15.71'
p3107
aS'2404'
p3108
aS'20617'
p3109
aS'0.22'
p3110
aS'45'
p3111
asS'Alfred Berg Gambak'
p3112
(lp3113
S'NOK'
p3114
aS'0.2646'
p3115
aS'23370.46'
p3116
aS'6184'
p3117
aS'0.25'
p3118
aS'26043.53'
p3119
aS'6891'
p3120
aS'11.44'
p3121
aS'707'
p3122
asS'Delphi Nordic'
p3123
(lp3124
S'NOK'
p3125
aS'0.1813'
p3126
aS'29637.71'
p3127
aS'5373'
p3128
aS'-0.41'
p3129
aS'30517.75'
p3130
aS'5533'
p3131
aS'2.97'
p3132
aS'160'
p3133
asS'date'
p3134
(lp3135
F1484048391.0998521
aS'10.01.17'
p3136
asS'Alfred Berg Nordisk Eiendom C'
p3137
(lp3138
S'NOK'
p3139
aS'31.5399'
p3140
aS'109.45'
p3141
aS'3452'
p3142
aS'0.00'
p3143
aS'106.71'
p3144
aS'3366'
p3145
aS'-2.50'
p3146
aS'-86'
p3147
asS'SKAGEN Focus A'
p3148
(lp3149
S'NOK'
p3150
aS'64.8551'
p3151
aS'98.45'
p3152
aS'6385'
p3153
aS'-0.13'
p3154
aS'108.52'
p3155
aS'7038'
p3156
aS'10.22'
p3157
aS'653'
p3158
asS'Global X SuperIncome Preferred ETF'
p3159
(lp3160
S'USD'
p3161
aS'187'
p3162
aS'13.43'
p3163
aS'0.00'
p3164
aS'12.95'
p3165
aS'2422'
p3166
aS'20771'
p3167
aS'1.46'
p3168
aS'300'
p3169
asa(dp3170
S'DNB Teknologi'
p3171
(lp3172
S'NOK'
p3173
aS'7.7594'
p3174
aS'944.59'
p3175
aS'7329'
p3176
aS'0.55'
p3177
aS'1059.15'
p3178
aS'8218'
p3179
aS'12.13'
p3180
aS'889'
p3181
asS'KLP AksjeGlobal Indeks V'
p3182
(lp3183
S'NOK'
p3184
aS'7.2783'
p3185
aS'1054.38'
p3186
aS'7674'
p3187
aS'0.50'
p3188
aS'1107.55'
p3189
aS'8061'
p3190
aS'5.04'
p3191
aS'387'
p3192
asS'KLP AksjeFremvoksende Markeder Indeks II'
p3193
(lp3194
S'NOK'
p3195
aS'3.5857'
p3196
aS'1514.35'
p3197
aS'5430'
p3198
aS'1.16'
p3199
aS'1546.36'
p3200
aS'5545'
p3201
aS'2.11'
p3202
aS'115'
p3203
asS'Global X MSCI SuperDividend EAFE ETF'
p3204
(lp3205
S'USD'
p3206
aS'153'
p3207
aS'15.83'
p3208
aS'1.02'
p3209
aS'15.87'
p3210
aS'2428'
p3211
aS'20987'
p3212
aS'2.02'
p3213
aS'415'
p3214
asS'Alfred Berg Gambak'
p3215
(lp3216
S'NOK'
p3217
aS'0.2646'
p3218
aS'23370.46'
p3219
aS'6184'
p3220
aS'-0.09'
p3221
aS'25739.93'
p3222
aS'6811'
p3223
aS'10.14'
p3224
aS'627'
p3225
asS'Delphi Nordic'
p3226
(lp3227
S'NOK'
p3228
aS'0.1813'
p3229
aS'29637.71'
p3230
aS'5373'
p3231
aS'0.77'
p3232
aS'30753.33'
p3233
aS'5576'
p3234
aS'3.76'
p3235
aS'202'
p3236
asS'date'
p3237
(lp3238
F1484151994.778183
aS'11.01.17'
p3239
asS'Alfred Berg Nordisk Eiendom C'
p3240
(lp3241
S'NOK'
p3242
aS'31.5399'
p3243
aS'109.45'
p3244
aS'3452'
p3245
aS'0.53'
p3246
aS'107.28'
p3247
aS'3384'
p3248
aS'-1.98'
p3249
aS'-68'
p3250
asS'SKAGEN Focus A'
p3251
(lp3252
S'NOK'
p3253
aS'64.8551'
p3254
aS'98.45'
p3255
aS'6385'
p3256
aS'0.56'
p3257
aS'109.13'
p3258
aS'7077'
p3259
aS'10.84'
p3260
aS'692'
p3261
asS'Global X SuperIncome Preferred ETF'
p3262
(lp3263
S'USD'
p3264
aS'187'
p3265
aS'13.43'
p3266
aS'0.00'
p3267
aS'13.01'
p3268
aS'2433'
p3269
aS'21028'
p3270
aS'2.72'
p3271
aS'556'
p3272
asa(dp3273
S'KLP AksjeGlobal Indeks V'
p3274
(lp3275
S'NOK'
p3276
aS'7.2783'
p3277
aS'1054.38'
p3278
aS'7674'
p3279
aS'0.69'
p3280
aS'1115.20'
p3281
aS'8117'
p3282
aS'5.77'
p3283
aS'443'
p3284
asS'KLP AksjeFremvoksende Markeder Indeks II'
p3285
(lp3286
S'NOK'
p3287
aS'3.5857'
p3288
aS'1514.35'
p3289
aS'5430'
p3290
aS'0.86'
p3291
aS'1559.64'
p3292
aS'5592'
p3293
aS'2.99'
p3294
aS'162'
p3295
asS'Global X MSCI SuperDividend EAFE ETF'
p3296
(lp3297
S'USD'
p3298
aS'153'
p3299
aS'15.83'
p3300
aS'0.00'
p3301
aS'15.90'
p3302
aS'2433'
p3303
aS'20694'
p3304
aS'0.59'
p3305
aS'122'
p3306
asS'Alfred Berg Gambak'
p3307
(lp3308
S'NOK'
p3309
aS'0.2646'
p3310
aS'23370.46'
p3311
aS'6184'
p3312
aS'0.66'
p3313
aS'25910.79'
p3314
aS'6856'
p3315
aS'10.87'
p3316
aS'672'
p3317
asS'Delphi Nordic'
p3318
(lp3319
S'NOK'
p3320
aS'0.1813'
p3321
aS'29637.71'
p3322
aS'5373'
p3323
aS'-0.94'
p3324
aS'30652.89'
p3325
aS'5557'
p3326
aS'3.43'
p3327
aS'184'
p3328
asS'Global X SuperIncome Preferred ETF'
p3329
(lp3330
S'USD'
p3331
aS'187'
p3332
aS'13.43'
p3333
aS'0.15'
p3334
aS'13.01'
p3335
aS'2433'
p3336
aS'20695'
p3337
aS'1.09'
p3338
aS'224'
p3339
asS'date'
p3340
(lp3341
F1484309201.237968
aS'13.01.17'
p3342
asS'Alfred Berg Nordisk Eiendom C'
p3343
(lp3344
S'NOK'
p3345
aS'31.5399'
p3346
aS'109.45'
p3347
aS'3452'
p3348
aS'0.68'
p3349
aS'107.66'
p3350
aS'3396'
p3351
aS'-1.63'
p3352
aS'-56'
p3353
asS'SKAGEN Focus A'
p3354
(lp3355
S'NOK'
p3356
aS'64.8551'
p3357
aS'98.45'
p3358
aS'6385'
p3359
aS'-1.13'
p3360
aS'108.72'
p3361
aS'7051'
p3362
aS'10.43'
p3363
aS'666'
p3364
asS'DNB Teknologi'
p3365
(lp3366
S'NOK'
p3367
aS'7.7594'
p3368
aS'944.59'
p3369
aS'7329'
p3370
aS'-1.47'
p3371
aS'1050.31'
p3372
aS'8150'
p3373
aS'11.19'
p3374
aS'820'
p3375
asa(dp3376
S'DNB Teknologi'
p3377
(lp3378
S'NOK'
p3379
aS'7.7594'
p3380
aS'944.59'
p3381
aS'7329'
p3382
aS'0.44'
p3383
aS'1054.91'
p3384
aS'8185'
p3385
aS'11.68'
p3386
aS'856'
p3387
asS'KLP AksjeGlobal Indeks V'
p3388
(lp3389
S'NOK'
p3390
aS'7.2783'
p3391
aS'1054.38'
p3392
aS'7674'
p3393
aS'0.24'
p3394
aS'1102.98'
p3395
aS'8028'
p3396
aS'4.61'
p3397
aS'354'
p3398
asS'KLP AksjeFremvoksende Markeder Indeks II'
p3399
(lp3400
S'NOK'
p3401
aS'3.5857'
p3402
aS'1514.35'
p3403
aS'5430'
p3404
aS'-0.11'
p3405
aS'1549.39'
p3406
aS'5556'
p3407
aS'2.31'
p3408
aS'126'
p3409
asS'Global X MSCI SuperDividend EAFE ETF'
p3410
(lp3411
S'USD'
p3412
aS'153'
p3413
aS'15.83'
p3414
aS'0.00'
p3415
aS'15.90'
p3416
aS'2433'
p3417
aS'20759'
p3418
aS'0.91'
p3419
aS'187'
p3420
asS'Alfred Berg Gambak'
p3421
(lp3422
S'NOK'
p3423
aS'0.2646'
p3424
aS'23370.46'
p3425
aS'6184'
p3426
aS'0.24'
p3427
aS'25962.75'
p3428
aS'6870'
p3429
aS'11.09'
p3430
aS'686'
p3431
asS'Delphi Nordic'
p3432
(lp3433
S'NOK'
p3434
aS'0.1813'
p3435
aS'29637.71'
p3436
aS'5373'
p3437
aS'-0.40'
p3438
aS'30754.40'
p3439
aS'5576'
p3440
aS'3.77'
p3441
aS'202'
p3442
asS'date'
p3443
(lp3444
F1484599047.563796
aS'16.01.17'
p3445
asS'Alfred Berg Nordisk Eiendom C'
p3446
(lp3447
S'NOK'
p3448
aS'31.5399'
p3449
aS'109.45'
p3450
aS'3452'
p3451
aS'-0.32'
p3452
aS'107.59'
p3453
aS'3393'
p3454
aS'-1.70'
p3455
aS'-59'
p3456
asS'SKAGEN Focus A'
p3457
(lp3458
S'NOK'
p3459
aS'64.8551'
p3460
aS'98.45'
p3461
aS'6385'
p3462
aS'-0.25'
p3463
aS'108.78'
p3464
aS'7055'
p3465
aS'10.49'
p3466
aS'670'
p3467
asS'Global X SuperIncome Preferred ETF'
p3468
(lp3469
S'USD'
p3470
aS'187'
p3471
aS'13.43'
p3472
aS'0.00'
p3473
aS'13.00'
p3474
aS'2431'
p3475
aS'20744'
p3476
aS'1.33'
p3477
aS'273'
p3478
asa(dp3479
S'KLP AksjeGlobal Indeks V'
p3480
(lp3481
S'NOK'
p3482
aS'7.2783'
p3483
aS'1054.38'
p3484
aS'7674'
p3485
aS'0.00'
p3486
aS'1095.21'
p3487
aS'7971'
p3488
aS'3.87'
p3489
aS'297'
p3490
asS'KLP AksjeFremvoksende Markeder Indeks II'
p3491
(lp3492
S'NOK'
p3493
aS'3.5857'
p3494
aS'1514.35'
p3495
aS'5430'
p3496
aS'-0.07'
p3497
aS'1541.55'
p3498
aS'5528'
p3499
aS'1.80'
p3500
aS'98'
p3501
asS'Global X MSCI SuperDividend EAFE ETF'
p3502
(lp3503
S'USD'
p3504
aS'153'
p3505
aS'15.83'
p3506
aS'0.00'
p3507
aS'15.90'
p3508
aS'2433'
p3509
aS'20593'
p3510
aS'0.10'
p3511
aS'21'
p3512
asS'Alfred Berg Gambak'
p3513
(lp3514
S'NOK'
p3515
aS'0.2646'
p3516
aS'23370.46'
p3517
aS'6184'
p3518
aS'-0.02'
p3519
aS'25722.65'
p3520
aS'6806'
p3521
aS'10.06'
p3522
aS'622'
p3523
asS'Delphi Nordic'
p3524
(lp3525
S'NOK'
p3526
aS'0.1813'
p3527
aS'29637.71'
p3528
aS'5373'
p3529
aS'0.10'
p3530
aS'30478.35'
p3531
aS'5526'
p3532
aS'2.84'
p3533
aS'152'
p3534
asS'Global X SuperIncome Preferred ETF'
p3535
(lp3536
S'USD'
p3537
aS'187'
p3538
aS'13.43'
p3539
aS'0.15'
p3540
aS'13.02'
p3541
aS'2435'
p3542
aS'20611'
p3543
aS'0.68'
p3544
aS'139'
p3545
asS'date'
p3546
(lp3547
F1484820005.151942
aS'19.01.17'
p3548
asS'Alfred Berg Nordisk Eiendom C'
p3549
(lp3550
S'NOK'
p3551
aS'31.5399'
p3552
aS'109.45'
p3553
aS'3452'
p3554
aS'0.03'
p3555
aS'106.59'
p3556
aS'3362'
p3557
aS'-2.61'
p3558
aS'-90'
p3559
asS'SKAGEN Focus A'
p3560
(lp3561
S'NOK'
p3562
aS'64.8551'
p3563
aS'98.45'
p3564
aS'6385'
p3565
aS'0.01'
p3566
aS'108.15'
p3567
aS'7014'
p3568
aS'9.85'
p3569
aS'629'
p3570
asS'DNB Teknologi'
p3571
(lp3572
S'NOK'
p3573
aS'7.7594'
p3574
aS'944.59'
p3575
aS'7329'
p3576
aS'0.00'
p3577
aS'1049.24'
p3578
aS'8141'
p3579
aS'11.08'
p3580
aS'812'
p3581
asa(dp3582
S'DNB Teknologi'
p3583
(lp3584
S'NOK'
p3585
aS'7.7594'
p3586
aS'944.59'
p3587
aS'7329'
p3588
aS'-0.13'
p3589
aS'1047.92'
p3590
aS'8131'
p3591
aS'10.94'
p3592
aS'802'
p3593
asS'KLP AksjeGlobal Indeks V'
p3594
(lp3595
S'NOK'
p3596
aS'7.2783'
p3597
aS'1054.38'
p3598
aS'7674'
p3599
aS'-0.08'
p3600
aS'1094.35'
p3601
aS'7965'
p3602
aS'3.79'
p3603
aS'291'
p3604
asS'KLP AksjeFremvoksende Markeder Indeks II'
p3605
(lp3606
S'NOK'
p3607
aS'3.5857'
p3608
aS'1514.35'
p3609
aS'5430'
p3610
aS'0.10'
p3611
aS'1543.17'
p3612
aS'5533'
p3613
aS'1.90'
p3614
aS'103'
p3615
asS'Global X MSCI SuperDividend EAFE ETF'
p3616
(lp3617
S'USD'
p3618
aS'153'
p3619
aS'15.83'
p3620
aS'0.00'
p3621
aS'15.90'
p3622
aS'2433'
p3623
aS'20557'
p3624
aS'-0.07'
p3625
aS'-15'
p3626
asS'Alfred Berg Gambak'
p3627
(lp3628
S'NOK'
p3629
aS'0.2646'
p3630
aS'23370.46'
p3631
aS'6184'
p3632
aS'1.20'
p3633
aS'26032.56'
p3634
aS'6888'
p3635
aS'11.39'
p3636
aS'704'
p3637
asS'Delphi Nordic'
p3638
(lp3639
S'NOK'
p3640
aS'0.1813'
p3641
aS'29637.71'
p3642
aS'5373'
p3643
aS'0.21'
p3644
aS'30542.35'
p3645
aS'5537'
p3646
aS'3.05'
p3647
aS'164'
p3648
asS'date'
p3649
(lp3650
F1484906813.871563
aS'20.01.17'
p3651
asS'Alfred Berg Nordisk Eiendom C'
p3652
(lp3653
S'NOK'
p3654
aS'31.5399'
p3655
aS'109.45'
p3656
aS'3452'
p3657
aS'-0.48'
p3658
aS'106.08'
p3659
aS'3346'
p3660
aS'-3.07'
p3661
aS'-106'
p3662
asS'SKAGEN Focus A'
p3663
(lp3664
S'NOK'
p3665
aS'64.8551'
p3666
aS'98.45'
p3667
aS'6385'
p3668
aS'0.50'
p3669
aS'108.69'
p3670
aS'7049'
p3671
aS'10.40'
p3672
aS'664'
p3673
asS'Global X SuperIncome Preferred ETF'
p3674
(lp3675
S'USD'
p3676
aS'187'
p3677
aS'13.43'
p3678
aS'0.15'
p3679
aS'12.94'
p3680
aS'2420'
p3681
aS'20447'
p3682
aS'-0.12'
p3683
aS'-24'
p3684
asa(dp3685
S'KLP AksjeGlobal Indeks V'
p3686
(lp3687
S'NOK'
p3688
aS'7.2783'
p3689
aS'1054.38'
p3690
aS'7674'
p3691
aS'-0.40'
p3692
aS'1088.76'
p3693
aS'7924'
p3694
aS'3.26'
p3695
aS'250'
p3696
asS'KLP AksjeFremvoksende Markeder Indeks II'
p3697
(lp3698
S'NOK'
p3699
aS'3.5857'
p3700
aS'1514.35'
p3701
aS'5430'
p3702
aS'0.07'
p3703
aS'1544.23'
p3704
aS'5537'
p3705
aS'1.97'
p3706
aS'107'
p3707
asS'Global X MSCI SuperDividend EAFE ETF'
p3708
(lp3709
S'USD'
p3710
aS'153'
p3711
aS'15.83'
p3712
aS'0.00'
p3713
aS'15.90'
p3714
aS'2433'
p3715
aS'20412'
p3716
aS'-0.78'
p3717
aS'-160'
p3718
asS'Alfred Berg Gambak'
p3719
(lp3720
S'NOK'
p3721
aS'0.2646'
p3722
aS'23370.46'
p3723
aS'6184'
p3724
aS'0.88'
p3725
aS'26262.85'
p3726
aS'6949'
p3727
aS'12.38'
p3728
aS'765'
p3729
asS'Delphi Nordic'
p3730
(lp3731
S'NOK'
p3732
aS'0.1813'
p3733
aS'29637.71'
p3734
aS'5373'
p3735
aS'0.35'
p3736
aS'30649.48'
p3737
aS'5557'
p3738
aS'3.41'
p3739
aS'183'
p3740
asS'Global X SuperIncome Preferred ETF'
p3741
(lp3742
S'USD'
p3743
aS'187'
p3744
aS'13.43'
p3745
aS'0.00'
p3746
aS'12.92'
p3747
aS'2416'
p3748
aS'20273'
p3749
aS'-0.97'
p3750
aS'-199'
p3751
asS'date'
p3752
(lp3753
F1485167563.620404
aS'23.01.17'
p3754
asS'Alfred Berg Nordisk Eiendom C'
p3755
(lp3756
S'NOK'
p3757
aS'31.5399'
p3758
aS'109.45'
p3759
aS'3452'
p3760
aS'0.25'
p3761
aS'106.35'
p3762
aS'3354'
p3763
aS'-2.83'
p3764
aS'-98'
p3765
asS'SKAGEN Focus A'
p3766
(lp3767
S'NOK'
p3768
aS'64.8551'
p3769
aS'98.45'
p3770
aS'6385'
p3771
aS'-0.29'
p3772
aS'108.38'
p3773
aS'7029'
p3774
aS'10.08'
p3775
aS'644'
p3776
asS'DNB Teknologi'
p3777
(lp3778
S'NOK'
p3779
aS'7.7594'
p3780
aS'944.59'
p3781
aS'7329'
p3782
aS'-0.38'
p3783
aS'1042.83'
p3784
aS'8092'
p3785
aS'10.40'
p3786
aS'762'
p3787
asa(dp3788
S'DNB Teknologi'
p3789
(lp3790
S'NOK'
p3791
aS'7.7594'
p3792
aS'944.59'
p3793
aS'7329'
p3794
aS'-0.55'
p3795
aS'1037.07'
p3796
aS'8047'
p3797
aS'9.79'
p3798
aS'718'
p3799
asS'KLP AksjeGlobal Indeks V'
p3800
(lp3801
S'NOK'
p3802
aS'7.2783'
p3803
aS'1054.38'
p3804
aS'7674'
p3805
aS'-0.78'
p3806
aS'1080.22'
p3807
aS'7862'
p3808
aS'2.45'
p3809
aS'188'
p3810
asS'KLP AksjeFremvoksende Markeder Indeks II'
p3811
(lp3812
S'NOK'
p3813
aS'3.5857'
p3814
aS'1514.35'
p3815
aS'5430'
p3816
aS'0.29'
p3817
aS'1534.57'
p3818
aS'5503'
p3819
aS'1.34'
p3820
aS'73'
p3821
asS'Global X MSCI SuperDividend EAFE ETF'
p3822
(lp3823
S'USD'
p3824
aS'153'
p3825
aS'15.83'
p3826
aS'0.00'
p3827
aS'16.01'
p3828
aS'2450'
p3829
aS'20395'
p3830
aS'-0.86'
p3831
aS'-177'
p3832
asS'Alfred Berg Gambak'
p3833
(lp3834
S'NOK'
p3835
aS'0.2646'
p3836
aS'23370.46'
p3837
aS'6184'
p3838
aS'-0.72'
p3839
aS'26233.98'
p3840
aS'6942'
p3841
aS'12.25'
p3842
aS'758'
p3843
asS'Delphi Nordic'
p3844
(lp3845
S'NOK'
p3846
aS'0.1813'
p3847
aS'29637.71'
p3848
aS'5373'
p3849
aS'-0.49'
p3850
aS'30497.76'
p3851
aS'5529'
p3852
aS'2.90'
p3853
aS'156'
p3854
asS'date'
p3855
(lp3856
F1485309469.2838249
aS'25.01.17'
p3857
asS'Alfred Berg Nordisk Eiendom C'
p3858
(lp3859
S'NOK'
p3860
aS'31.5399'
p3861
aS'109.45'
p3862
aS'3452'
p3863
aS'0.42'
p3864
aS'106.80'
p3865
aS'3368'
p3866
aS'-2.42'
p3867
aS'-83'
p3868
asS'SKAGEN Focus A'
p3869
(lp3870
S'NOK'
p3871
aS'64.8551'
p3872
aS'98.45'
p3873
aS'6385'
p3874
aS'-0.85'
p3875
aS'107.45'
p3876
aS'6969'
p3877
aS'9.14'
p3878
aS'584'
p3879
asS'Global X SuperIncome Preferred ETF'
p3880
(lp3881
S'USD'
p3882
aS'187'
p3883
aS'13.43'
p3884
aS'0.00'
p3885
aS'12.95'
p3886
aS'2422'
p3887
aS'20163'
p3888
aS'-1.51'
p3889
aS'-309'
p3890
asa(dp3891
S'KLP AksjeGlobal Indeks V'
p3892
(lp3893
S'NOK'
p3894
aS'7.2783'
p3895
aS'1054.38'
p3896
aS'7674'
p3897
aS'0.00'
p3898
aS'1080.22'
p3899
aS'7862'
p3900
aS'2.45'
p3901
aS'188'
p3902
asS'KLP AksjeFremvoksende Markeder Indeks II'
p3903
(lp3904
S'NOK'
p3905
aS'3.5857'
p3906
aS'1514.35'
p3907
aS'5430'
p3908
aS'0.21'
p3909
aS'1537.72'
p3910
aS'5514'
p3911
aS'1.54'
p3912
aS'84'
p3913
asS'Global X MSCI SuperDividend EAFE ETF'
p3914
(lp3915
S'USD'
p3916
aS'153'
p3917
aS'15.83'
p3918
aS'0.00'
p3919
aS'16.01'
p3920
aS'2450'
p3921
aS'20422'
p3922
aS'-0.73'
p3923
aS'-150'
p3924
asS'Alfred Berg Gambak'
p3925
(lp3926
S'NOK'
p3927
aS'0.2646'
p3928
aS'23370.46'
p3929
aS'6184'
p3930
aS'0.41'
p3931
aS'26341.37'
p3932
aS'6970'
p3933
aS'12.71'
p3934
aS'786'
p3935
asS'Delphi Nordic'
p3936
(lp3937
S'NOK'
p3938
aS'0.1813'
p3939
aS'29637.71'
p3940
aS'5373'
p3941
aS'0.05'
p3942
aS'30512.96'
p3943
aS'5532'
p3944
aS'2.95'
p3945
aS'159'
p3946
asS'Global X SuperIncome Preferred ETF'
p3947
(lp3948
S'USD'
p3949
aS'187'
p3950
aS'13.43'
p3951
aS'-0.15'
p3952
aS'13.00'
p3953
aS'2431'
p3954
aS'20267'
p3955
aS'-1.00'
p3956
aS'-204'
p3957
asS'date'
p3958
(lp3959
F1485357032.967869
aS'25.01.17'
p3960
asS'Alfred Berg Nordisk Eiendom C'
p3961
(lp3962
S'NOK'
p3963
aS'31.5399'
p3964
aS'109.45'
p3965
aS'3452'
p3966
aS'-0.18'
p3967
aS'106.61'
p3968
aS'3362'
p3969
aS'-2.59'
p3970
aS'-89'
p3971
asS'SKAGEN Focus A'
p3972
(lp3973
S'NOK'
p3974
aS'64.8551'
p3975
aS'98.45'
p3976
aS'6385'
p3977
aS'-1.46'
p3978
aS'105.89'
p3979
aS'6867'
p3980
aS'7.55'
p3981
aS'482'
p3982
asS'DNB Teknologi'
p3983
(lp3984
S'NOK'
p3985
aS'7.7594'
p3986
aS'944.59'
p3987
aS'7329'
p3988
aS'0.30'
p3989
aS'1040.17'
p3990
aS'8071'
p3991
aS'10.12'
p3992
aS'742'
p3993
asa(dp3994
S'DNB Teknologi'
p3995
(lp3996
S'NOK'
p3997
aS'7.7594'
p3998
aS'944.59'
p3999
aS'7329'
p4000
aS'1.04'
p4001
aS'1050.98'
p4002
aS'8155'
p4003
aS'11.26'
p4004
aS'826'
p4005
asS'KLP AksjeGlobal Indeks V'
p4006
(lp4007
S'NOK'
p4008
aS'7.2783'
p4009
aS'1054.38'
p4010
aS'7674'
p4011
aS'0.80'
p4012
aS'1088.87'
p4013
aS'7925'
p4014
aS'3.27'
p4015
aS'251'
p4016
asS'KLP AksjeFremvoksende Markeder Indeks II'
p4017
(lp4018
S'NOK'
p4019
aS'3.5857'
p4020
aS'1514.35'
p4021
aS'5430'
p4022
aS'0.36'
p4023
aS'1543.19'
p4024
aS'5533'
p4025
aS'1.90'
p4026
aS'103'
p4027
asS'Global X MSCI SuperDividend EAFE ETF'
p4028
(lp4029
S'USD'
p4030
aS'153'
p4031
aS'15.83'
p4032
aS'0.00'
p4033
aS'16.28'
p4034
aS'2491'
p4035
aS'20785'
p4036
aS'1.04'
p4037
aS'213'
p4038
asS'Alfred Berg Gambak'
p4039
(lp4040
S'NOK'
p4041
aS'0.2646'
p4042
aS'23370.46'
p4043
aS'6184'
p4044
aS'0.93'
p4045
aS'26585.55'
p4046
aS'7035'
p4047
aS'13.76'
p4048
aS'851'
p4049
asS'Delphi Nordic'
p4050
(lp4051
S'NOK'
p4052
aS'0.1813'
p4053
aS'29637.71'
p4054
aS'5373'
p4055
aS'1.19'
p4056
aS'30874.56'
p4057
aS'5598'
p4058
aS'4.17'
p4059
aS'224'
p4060
asS'date'
p4061
(lp4062
F1485444191.707371
aS'26.01.17'
p4063
asS'Alfred Berg Nordisk Eiendom C'
p4064
(lp4065
S'NOK'
p4066
aS'31.5399'
p4067
aS'109.45'
p4068
aS'3452'
p4069
aS'-0.29'
p4070
aS'106.30'
p4071
aS'3353'
p4072
aS'-2.87'
p4073
aS'-99'
p4074
asS'SKAGEN Focus A'
p4075
(lp4076
S'NOK'
p4077
aS'64.8551'
p4078
aS'98.45'
p4079
aS'6385'
p4080
aS'0.92'
p4081
aS'106.86'
p4082
aS'6931'
p4083
aS'8.54'
p4084
aS'545'
p4085
asS'Global X SuperIncome Preferred ETF'
p4086
(lp4087
S'USD'
p4088
aS'187'
p4089
aS'13.43'
p4090
aS'0.00'
p4091
aS'12.98'
p4092
aS'2427'
p4093
aS'20254'
p4094
aS'-1.06'
p4095
aS'-217'
p4096
asa(dp4097
S'KLP AksjeGlobal Indeks V'
p4098
(lp4099
S'NOK'
p4100
aS'7.2783'
p4101
aS'1054.38'
p4102
aS'7674'
p4103
aS'0.34'
p4104
aS'1092.59'
p4105
aS'7952'
p4106
aS'3.62'
p4107
aS'278'
p4108
asS'KLP AksjeFremvoksende Markeder Indeks II'
p4109
(lp4110
S'NOK'
p4111
aS'3.5857'
p4112
aS'1514.35'
p4113
aS'5430'
p4114
aS'0.99'
p4115
aS'1558.47'
p4116
aS'5588'
p4117
aS'2.91'
p4118
aS'158'
p4119
asS'Global X MSCI SuperDividend EAFE ETF'
p4120
(lp4121
S'USD'
p4122
aS'153'
p4123
aS'15.83'
p4124
aS'-0.61'
p4125
aS'16.18'
p4126
aS'2476'
p4127
aS'20651'
p4128
aS'0.39'
p4129
aS'80'
p4130
asS'Alfred Berg Gambak'
p4131
(lp4132
S'NOK'
p4133
aS'0.2646'
p4134
aS'23370.46'
p4135
aS'6184'
p4136
aS'0.25'
p4137
aS'26651.47'
p4138
aS'7052'
p4139
aS'14.04'
p4140
aS'868'
p4141
asS'Delphi Nordic'
p4142
(lp4143
S'NOK'
p4144
aS'0.1813'
p4145
aS'29637.71'
p4146
aS'5373'
p4147
aS'0.10'
p4148
aS'31055.17'
p4149
aS'5630'
p4150
aS'4.78'
p4151
aS'257'
p4152
asS'Global X SuperIncome Preferred ETF'
p4153
(lp4154
S'USD'
p4155
aS'187'
p4156
aS'13.43'
p4157
aS'-0.08'
p4158
aS'13.04'
p4159
aS'2438'
p4160
aS'20342'
p4161
aS'-0.63'
p4162
aS'-129'
p4163
asS'date'
p4164
(lp4165
F1485537785.198885
aS'27.01.17'
p4166
asS'Alfred Berg Nordisk Eiendom C'
p4167
(lp4168
S'NOK'
p4169
aS'31.5399'
p4170
aS'109.45'
p4171
aS'3452'
p4172
aS'-0.38'
p4173
aS'106.58'
p4174
aS'3362'
p4175
aS'-2.62'
p4176
aS'-90'
p4177
asS'SKAGEN Focus A'
p4178
(lp4179
S'NOK'
p4180
aS'64.8551'
p4181
aS'98.45'
p4182
aS'6385'
p4183
aS'1.11'
p4184
aS'108.04'
p4185
aS'7007'
p4186
aS'9.74'
p4187
aS'622'
p4188
asS'DNB Teknologi'
p4189
(lp4190
S'NOK'
p4191
aS'7.7594'
p4192
aS'944.59'
p4193
aS'7329'
p4194
aS'0.92'
p4195
aS'1060.60'
p4196
aS'8230'
p4197
aS'12.28'
p4198
aS'900'
p4199
asa(dp4200
S'DNB Teknologi'
p4201
(lp4202
S'NOK'
p4203
aS'7.7594'
p4204
aS'944.59'
p4205
aS'7329'
p4206
aS'-0.59'
p4207
aS'1054.39'
p4208
aS'8181'
p4209
aS'11.62'
p4210
aS'852'
p4211
asS'KLP AksjeGlobal Indeks V'
p4212
(lp4213
S'NOK'
p4214
aS'7.2783'
p4215
aS'1054.38'
p4216
aS'7674'
p4217
aS'-0.43'
p4218
aS'1087.86'
p4219
aS'7918'
p4220
aS'3.18'
p4221
aS'244'
p4222
asS'KLP AksjeFremvoksende Markeder Indeks II'
p4223
(lp4224
S'NOK'
p4225
aS'3.5857'
p4226
aS'1514.35'
p4227
aS'5430'
p4228
aS'-0.51'
p4229
aS'1550.54'
p4230
aS'5560'
p4231
aS'2.39'
p4232
aS'130'
p4233
asS'Global X MSCI SuperDividend EAFE ETF'
p4234
(lp4235
S'USD'
p4236
aS'153'
p4237
aS'15.83'
p4238
aS'0.00'
p4239
aS'16.18'
p4240
aS'2476'
p4241
aS'20589'
p4242
aS'0.08'
p4243
aS'17'
p4244
asS'Alfred Berg Gambak'
p4245
(lp4246
S'NOK'
p4247
aS'0.2646'
p4248
aS'23370.46'
p4249
aS'6184'
p4250
aS'-0.22'
p4251
aS'26592.59'
p4252
aS'7036'
p4253
aS'13.79'
p4254
aS'853'
p4255
asS'Delphi Nordic'
p4256
(lp4257
S'NOK'
p4258
aS'0.1813'
p4259
aS'29637.71'
p4260
aS'5373'
p4261
aS'-0.86'
p4262
aS'30787.05'
p4263
aS'5582'
p4264
aS'3.88'
p4265
aS'208'
p4266
asS'date'
p4267
(lp4268
F1485803573.1528211
aS'30.01.17'
p4269
asS'Alfred Berg Nordisk Eiendom C'
p4270
(lp4271
S'NOK'
p4272
aS'31.5399'
p4273
aS'109.45'
p4274
aS'3452'
p4275
aS'-0.28'
p4276
aS'106.28'
p4277
aS'3352'
p4278
aS'-2.89'
p4279
aS'-100'
p4280
asS'SKAGEN Focus A'
p4281
(lp4282
S'NOK'
p4283
aS'64.8551'
p4284
aS'98.45'
p4285
aS'6385'
p4286
aS'-0.61'
p4287
aS'106.58'
p4288
aS'6912'
p4289
aS'8.26'
p4290
aS'527'
p4291
asS'Global X SuperIncome Preferred ETF'
p4292
(lp4293
S'USD'
p4294
aS'187'
p4295
aS'13.43'
p4296
aS'-0.31'
p4297
aS'13.00'
p4298
aS'2431'
p4299
aS'20219'
p4300
aS'-1.23'
p4301
aS'-253'
p4302
asa(dp4303
S'KLP AksjeGlobal Indeks V'
p4304
(lp4305
S'NOK'
p4306
aS'7.6671'
p4307
aS'1055.69'
p4308
aS'8094'
p4309
aS'-1.03'
p4310
aS'1069.15'
p4311
aS'8197'
p4312
aS'1.28'
p4313
aS'103'
p4314
asS'KLP AksjeFremvoksende Markeder Indeks II'
p4315
(lp4316
S'NOK'
p4317
aS'3.5857'
p4318
aS'1514.35'
p4319
aS'5430'
p4320
aS'-1.45'
p4321
aS'1522.71'
p4322
aS'5460'
p4323
aS'0.55'
p4324
aS'30'
p4325
asS'Global X MSCI SuperDividend EAFE ETF'
p4326
(lp4327
S'USD'
p4328
aS'153'
p4329
aS'15.83'
p4330
aS'0.00'
p4331
aS'16.09'
p4332
aS'2462'
p4333
aS'20314'
p4334
aS'-1.25'
p4335
aS'-258'
p4336
asS'Alfred Berg Gambak'
p4337
(lp4338
S'NOK'
p4339
aS'0.2646'
p4340
aS'23370.46'
p4341
aS'6184'
p4342
aS'-0.97'
p4343
aS'26020.79'
p4344
aS'6885'
p4345
aS'11.34'
p4346
aS'701'
p4347
asS'Delphi Nordic'
p4348
(lp4349
S'NOK'
p4350
aS'0.1871'
p4351
aS'29681.01'
p4352
aS'5553'
p4353
aS'-0.04'
p4354
aS'30774.58'
p4355
aS'5758'
p4356
aS'3.68'
p4357
aS'205'
p4358
asS'Global X SuperIncome Preferred ETF'
p4359
(lp4360
S'USD'
p4361
aS'187'
p4362
aS'13.43'
p4363
aS'-0.46'
p4364
aS'12.97'
p4365
aS'2425'
p4366
aS'20014'
p4367
aS'-2.24'
p4368
aS'-458'
p4369
asS'date'
p4370
(lp4371
F1485964182.0560391
aS'01.02.17'
p4372
asS'Alfred Berg Nordisk Eiendom C'
p4373
(lp4374
S'NOK'
p4375
aS'31.5399'
p4376
aS'109.45'
p4377
aS'3452'
p4378
aS'0.28'
p4379
aS'106.58'
p4380
aS'3362'
p4381
aS'-2.62'
p4382
aS'-90'
p4383
asS'SKAGEN Focus A'
p4384
(lp4385
S'NOK'
p4386
aS'65.7933'
p4387
aS'98.57'
p4388
aS'6485'
p4389
aS'-0.58'
p4390
aS'105.97'
p4391
aS'6972'
p4392
aS'7.50'
p4393
aS'487'
p4394
asS'DNB Teknologi'
p4395
(lp4396
S'NOK'
p4397
aS'8.2022'
p4398
aS'949.67'
p4399
aS'7789'
p4400
aS'-0.93'
p4401
aS'1029.15'
p4402
aS'8441'
p4403
aS'8.37'
p4404
aS'652'
p4405
asa(dp4406
S'DNB Teknologi'
p4407
(lp4408
S'NOK'
p4409
aS'8.2022'
p4410
aS'949.68'
p4411
aS'7789'
p4412
aS'-0.01'
p4413
aS'1034.20'
p4414
aS'8483'
p4415
aS'8.90'
p4416
aS'693'
p4417
asS'KLP AksjeGlobal Indeks V'
p4418
(lp4419
S'NOK'
p4420
aS'7.6671'
p4421
aS'1055.69'
p4422
aS'8094'
p4423
aS'-0.39'
p4424
aS'1069.12'
p4425
aS'8197'
p4426
aS'1.27'
p4427
aS'103'
p4428
asS'KLP AksjeFremvoksende Markeder Indeks II'
p4429
(lp4430
S'NOK'
p4431
aS'3.7696'
p4432
aS'1514.75'
p4433
aS'5710'
p4434
aS'-0.24'
p4435
aS'1529.82'
p4436
aS'5767'
p4437
aS'0.99'
p4438
aS'57'
p4439
asS'Global X MSCI SuperDividend EAFE ETF'
p4440
(lp4441
S'USD'
p4442
aS'153'
p4443
aS'15.83'
p4444
aS'0.00'
p4445
aS'16.09'
p4446
aS'2462'
p4447
aS'20230'
p4448
aS'-1.66'
p4449
aS'-342'
p4450
asS'Alfred Berg Gambak'
p4451
(lp4452
S'NOK'
p4453
aS'0.2821'
p4454
aS'23551.30'
p4455
aS'6644'
p4456
aS'-0.97'
p4457
aS'26136.56'
p4458
aS'7373'
p4459
aS'10.98'
p4460
aS'729'
p4461
asS'Delphi Nordic'
p4462
(lp4463
S'NOK'
p4464
aS'0.1871'
p4465
aS'29681.01'
p4466
aS'5553'
p4467
aS'0.52'
p4468
aS'31232.01'
p4469
aS'5844'
p4470
aS'5.23'
p4471
aS'290'
p4472
asS'date'
p4473
(lp4474
F1486133631.4758091
aS'03.02.17'
p4475
asS'Alfred Berg Nordisk Eiendom C'
p4476
(lp4477
S'NOK'
p4478
aS'32.4782'
p4479
aS'109.36'
p4480
aS'3552'
p4481
aS'0.32'
p4482
aS'108.16'
p4483
aS'3513'
p4484
aS'-1.10'
p4485
aS'-39'
p4486
asS'SKAGEN Focus A'
p4487
(lp4488
S'NOK'
p4489
aS'65.7933'
p4490
aS'98.57'
p4491
aS'6485'
p4492
aS'-0.14'
p4493
aS'106.44'
p4494
aS'7003'
p4495
aS'7.99'
p4496
aS'518'
p4497
asS'Global X SuperIncome Preferred ETF'
p4498
(lp4499
S'USD'
p4500
aS'187'
p4501
aS'13.43'
p4502
aS'0.00'
p4503
aS'13.05'
p4504
aS'2440'
p4505
aS'20054'
p4506
aS'-2.04'
p4507
aS'-418'
p4508
asa(dp4509
S'KLP AksjeGlobal Indeks V'
p4510
(lp4511
S'NOK'
p4512
aS'7.6671'
p4513
aS'1055.69'
p4514
aS'8094'
p4515
aS'0.42'
p4516
aS'1073.61'
p4517
aS'8231'
p4518
aS'1.70'
p4519
aS'137'
p4520
asS'KLP AksjeFremvoksende Markeder Indeks II'
p4521
(lp4522
S'NOK'
p4523
aS'3.7696'
p4524
aS'1514.75'
p4525
aS'5710'
p4526
aS'0.22'
p4527
aS'1533.21'
p4528
aS'5780'
p4529
aS'1.22'
p4530
aS'70'
p4531
asS'Global X MSCI SuperDividend EAFE ETF'
p4532
(lp4533
S'USD'
p4534
aS'153'
p4535
aS'15.83'
p4536
aS'0.00'
p4537
aS'16.05'
p4538
aS'2456'
p4539
aS'20280'
p4540
aS'-1.42'
p4541
aS'-292'
p4542
asS'Alfred Berg Gambak'
p4543
(lp4544
S'NOK'
p4545
aS'0.2821'
p4546
aS'23551.30'
p4547
aS'6644'
p4548
aS'0.65'
p4549
aS'26306.12'
p4550
aS'7421'
p4551
aS'11.70'
p4552
aS'777'
p4553
asS'Delphi Nordic'
p4554
(lp4555
S'NOK'
p4556
aS'0.1871'
p4557
aS'29681.01'
p4558
aS'5553'
p4559
aS'-0.12'
p4560
aS'31311.72'
p4561
aS'5858'
p4562
aS'5.49'
p4563
aS'305'
p4564
asS'Global X SuperIncome Preferred ETF'
p4565
(lp4566
S'USD'
p4567
aS'187'
p4568
aS'13.43'
p4569
aS'0.00'
p4570
aS'13.11'
p4571
aS'2452'
p4572
aS'20247'
p4573
aS'-1.10'
p4574
aS'-225'
p4575
asS'date'
p4576
(lp4577
F1486404046.6666441
aS'06.02.17'
p4578
asS'Alfred Berg Nordisk Eiendom C'
p4579
(lp4580
S'NOK'
p4581
aS'32.4782'
p4582
aS'109.36'
p4583
aS'3552'
p4584
aS'0.04'
p4585
aS'108.20'
p4586
aS'3514'
p4587
aS'-1.06'
p4588
aS'-38'
p4589
asS'SKAGEN Focus A'
p4590
(lp4591
S'NOK'
p4592
aS'65.7933'
p4593
aS'98.57'
p4594
aS'6485'
p4595
aS'0.35'
p4596
aS'106.81'
p4597
aS'7027'
p4598
aS'8.36'
p4599
aS'542'
p4600
asS'DNB Teknologi'
p4601
(lp4602
S'NOK'
p4603
aS'8.2022'
p4604
aS'949.68'
p4605
aS'7789'
p4606
aS'0.33'
p4607
aS'1037.57'
p4608
aS'8510'
p4609
aS'9.26'
p4610
aS'721'
p4611
asa(dp4612
S'DNB Teknologi'
p4613
(lp4614
S'NOK'
p4615
aS'8.2022'
p4616
aS'949.68'
p4617
aS'7789'
p4618
aS'0.61'
p4619
aS'1044.77'
p4620
aS'8569'
p4621
aS'10.01'
p4622
aS'780'
p4623
asS'KLP AksjeGlobal Indeks V'
p4624
(lp4625
S'NOK'
p4626
aS'7.6671'
p4627
aS'1055.69'
p4628
aS'8094'
p4629
aS'0.60'
p4630
aS'1082.79'
p4631
aS'8302'
p4632
aS'2.57'
p4633
aS'208'
p4634
asS'KLP AksjeFremvoksende Markeder Indeks II'
p4635
(lp4636
S'NOK'
p4637
aS'3.7696'
p4638
aS'1514.75'
p4639
aS'5710'
p4640
aS'0.33'
p4641
aS'1556.11'
p4642
aS'5866'
p4643
aS'2.73'
p4644
aS'156'
p4645
asS'Global X MSCI SuperDividend EAFE ETF'
p4646
(lp4647
S'USD'
p4648
aS'153'
p4649
aS'15.83'
p4650
aS'0.00'
p4651
aS'15.84'
p4652
aS'2424'
p4653
aS'20136'
p4654
aS'-2.12'
p4655
aS'-436'
p4656
asS'Alfred Berg Gambak'
p4657
(lp4658
S'NOK'
p4659
aS'0.2821'
p4660
aS'23551.30'
p4661
aS'6644'
p4662
aS'0.92'
p4663
aS'26613.97'
p4664
aS'7508'
p4665
aS'13.00'
p4666
aS'864'
p4667
asS'Delphi Nordic'
p4668
(lp4669
S'NOK'
p4670
aS'0.1871'
p4671
aS'29681.01'
p4672
aS'5553'
p4673
aS'0.04'
p4674
aS'31324.45'
p4675
aS'5861'
p4676
aS'5.54'
p4677
aS'307'
p4678
asS'date'
p4679
(lp4680
F1486574230.393631
aS'08.02.17'
p4681
asS'Alfred Berg Nordisk Eiendom C'
p4682
(lp4683
S'NOK'
p4684
aS'32.4782'
p4685
aS'109.36'
p4686
aS'3552'
p4687
aS'1.51'
p4688
aS'111.13'
p4689
aS'3609'
p4690
aS'1.62'
p4691
aS'57'
p4692
asS'SKAGEN Focus A'
p4693
(lp4694
S'NOK'
p4695
aS'65.7933'
p4696
aS'98.57'
p4697
aS'6485'
p4698
aS'0.63'
p4699
aS'107.66'
p4700
aS'7083'
p4701
aS'9.22'
p4702
aS'598'
p4703
asS'Global X SuperIncome Preferred ETF'
p4704
(lp4705
S'USD'
p4706
aS'187'
p4707
aS'13.43'
p4708
aS'0.23'
p4709
aS'13.15'
p4710
aS'2459'
p4711
aS'20432'
p4712
aS'-0.20'
p4713
aS'-40'
p4714
asa(dp4715
S'KLP AksjeGlobal Indeks V'
p4716
(lp4717
S'NOK'
p4718
aS'7.6671'
p4719
aS'1055.69'
p4720
aS'8094'
p4721
aS'0.74'
p4722
aS'1092.08'
p4723
aS'8373'
p4724
aS'3.45'
p4725
aS'279'
p4726
asS'KLP AksjeFremvoksende Markeder Indeks II'
p4727
(lp4728
S'NOK'
p4729
aS'3.7696'
p4730
aS'1514.75'
p4731
aS'5710'
p4732
aS'0.89'
p4733
aS'1570.26'
p4734
aS'5919'
p4735
aS'3.66'
p4736
aS'209'
p4737
asS'Global X MSCI SuperDividend EAFE ETF'
p4738
(lp4739
S'USD'
p4740
aS'153'
p4741
aS'15.83'
p4742
aS'0.00'
p4743
aS'15.84'
p4744
aS'2424'
p4745
aS'20325'
p4746
aS'-1.20'
p4747
aS'-247'
p4748
asS'Alfred Berg Gambak'
p4749
(lp4750
S'NOK'
p4751
aS'0.2821'
p4752
aS'23551.30'
p4753
aS'6644'
p4754
aS'-0.28'
p4755
aS'26438.70'
p4756
aS'7458'
p4757
aS'12.26'
p4758
aS'815'
p4759
asS'Delphi Nordic'
p4760
(lp4761
S'NOK'
p4762
aS'0.1871'
p4763
aS'29681.01'
p4764
aS'5553'
p4765
aS'0.53'
p4766
aS'31363.80'
p4767
aS'5868'
p4768
aS'5.67'
p4769
aS'315'
p4770
asS'Global X SuperIncome Preferred ETF'
p4771
(lp4772
S'USD'
p4773
aS'187'
p4774
aS'13.43'
p4775
aS'0.08'
p4776
aS'13.19'
p4777
aS'2467'
p4778
aS'20686'
p4779
aS'1.05'
p4780
aS'214'
p4781
asS'date'
p4782
(lp4783
F1486738510.4737689
aS'10.02.17'
p4784
asS'Alfred Berg Nordisk Eiendom C'
p4785
(lp4786
S'NOK'
p4787
aS'32.4782'
p4788
aS'109.36'
p4789
aS'3552'
p4790
aS'-0.58'
p4791
aS'110.49'
p4792
aS'3589'
p4793
aS'1.03'
p4794
aS'37'
p4795
asS'SKAGEN Focus A'
p4796
(lp4797
S'NOK'
p4798
aS'65.7933'
p4799
aS'98.57'
p4800
aS'6485'
p4801
aS'0.50'
p4802
aS'107.66'
p4803
aS'7083'
p4804
aS'9.22'
p4805
aS'598'
p4806
asS'DNB Teknologi'
p4807
(lp4808
S'NOK'
p4809
aS'8.2022'
p4810
aS'949.68'
p4811
aS'7789'
p4812
aS'1.00'
p4813
aS'1058.71'
p4814
aS'8684'
p4815
aS'11.48'
p4816
aS'894'
p4817
asa(dp4818
S'DNB Teknologi'
p4819
(lp4820
S'NOK'
p4821
aS'8.2022'
p4822
aS'949.68'
p4823
aS'7789'
p4824
aS'0.56'
p4825
aS'1071.70'
p4826
aS'8790'
p4827
aS'12.85'
p4828
aS'1001'
p4829
asS'KLP AksjeGlobal Indeks V'
p4830
(lp4831
S'NOK'
p4832
aS'7.6671'
p4833
aS'1055.69'
p4834
aS'8094'
p4835
aS'0.42'
p4836
aS'1108.18'
p4837
aS'8497'
p4838
aS'4.97'
p4839
aS'402'
p4840
asS'KLP AksjeFremvoksende Markeder Indeks II'
p4841
(lp4842
S'NOK'
p4843
aS'3.7696'
p4844
aS'1514.75'
p4845
aS'5710'
p4846
aS'0.50'
p4847
aS'1595.76'
p4848
aS'6015'
p4849
aS'5.35'
p4850
aS'305'
p4851
asS'yield'
p4852
(dp4853
S'Global X SuperIncome Preferred ETF'
p4854
F96.400000000000006
sS'Global X MSCI SuperDividend EAFE ETF'
p4855
F61.43
ssS'Global X MSCI SuperDividend EAFE ETF'
p4856
(lp4857
S'USD'
p4858
aS'153'
p4859
aS'15.83'
p4860
aS'0.00'
p4861
aS'16.12'
p4862
aS'2466'
p4863
aS'20628'
p4864
aS'0.27'
p4865
aS'56'
p4866
asS'Alfred Berg Gambak'
p4867
(lp4868
S'NOK'
p4869
aS'0.2821'
p4870
aS'23551.30'
p4871
aS'6644'
p4872
aS'0.84'
p4873
aS'26690.36'
p4874
aS'7529'
p4875
aS'13.33'
p4876
aS'886'
p4877
asS'Delphi Nordic'
p4878
(lp4879
S'NOK'
p4880
aS'0.1871'
p4881
aS'29681.01'
p4882
aS'5553'
p4883
aS'0.49'
p4884
aS'31957.39'
p4885
aS'5979'
p4886
aS'7.67'
p4887
aS'426'
p4888
asS'date'
p4889
(lp4890
F1487080355.5392611
aS'14.02.17'
p4891
asS'Alfred Berg Nordisk Eiendom C'
p4892
(lp4893
S'NOK'
p4894
aS'32.4782'
p4895
aS'109.36'
p4896
aS'3552'
p4897
aS'0.19'
p4898
aS'110.86'
p4899
aS'3601'
p4900
aS'1.37'
p4901
aS'49'
p4902
asS'SKAGEN Focus A'
p4903
(lp4904
S'NOK'
p4905
aS'65.7933'
p4906
aS'98.57'
p4907
aS'6485'
p4908
aS'1.10'
p4909
aS'109.22'
p4910
aS'7186'
p4911
aS'10.81'
p4912
aS'701'
p4913
asS'Global X SuperIncome Preferred ETF'
p4914
(lp4915
S'USD'
p4916
aS'187'
p4917
aS'13.43'
p4918
aS'0.00'
p4919
aS'13.24'
p4920
aS'2476'
p4921
aS'20707'
p4922
aS'1.15'
p4923
aS'236'
p4924
asa(dp4925
S'DNB Teknologi'
p4926
(lp4927
S'NOK'
p4928
aS'8.2022'
p4929
aS'949.68'
p4930
aS'7789'
p4931
aS'0.49'
p4932
aS'1077.01'
p4933
aS'8834'
p4934
aS'13.41'
p4935
aS'1044'
p4936
asS'KLP AksjeGlobal Indeks V'
p4937
(lp4938
S'NOK'
p4939
aS'7.6671'
p4940
aS'1055.69'
p4941
aS'8094'
p4942
aS'0.38'
p4943
aS'1112.42'
p4944
aS'8529'
p4945
aS'5.37'
p4946
aS'435'
p4947
asS'KLP AksjeFremvoksende Markeder Indeks II'
p4948
(lp4949
S'NOK'
p4950
aS'3.7696'
p4951
aS'1514.75'
p4952
aS'5710'
p4953
aS'0.19'
p4954
aS'1598.78'
p4955
aS'6027'
p4956
aS'5.55'
p4957
aS'317'
p4958
asS'Global X MSCI SuperDividend EAFE ETF'
p4959
(lp4960
S'USD'
p4961
aS'153'
p4962
aS'15.83'
p4963
aS'0.00'
p4964
aS'16.12'
p4965
aS'2466'
p4966
aS'20578'
p4967
aS'0.03'
p4968
aS'6'
asS'Alfred Berg Gambak'
p4969
(lp4970
S'NOK'
p4971
aS'0.2821'
p4972
aS'23551.30'
p4973
aS'6644'
p4974
aS'0.14'
p4975
aS'26727.53'
p4976
aS'7540'
p4977
aS'13.49'
p4978
aS'896'
p4979
asS'Delphi Nordic'
p4980
(lp4981
S'NOK'
p4982
aS'0.1871'
p4983
aS'29681.01'
p4984
aS'5553'
p4985
aS'0.08'
p4986
aS'31982.12'
p4987
aS'5984'
p4988
aS'7.75'
p4989
aS'431'
p4990
asS'date'
p4991
(lp4992
F1487178080.4284749
aS'15.02.17'
p4993
asS'Alfred Berg Nordisk Eiendom C'
p4994
(lp4995
S'NOK'
p4996
aS'32.4782'
p4997
aS'109.36'
p4998
aS'3552'
p4999
aS'0.22'
p5000
aS'111.10'
p5001
aS'3608'
p5002
aS'1.59'
p5003
aS'56'
p5004
asS'SKAGEN Focus A'
p5005
(lp5006
S'NOK'
p5007
aS'65.7933'
p5008
aS'98.57'
p5009
aS'6485'
p5010
aS'0.04'
p5011
aS'109.27'
p5012
aS'7189'
p5013
aS'10.85'
p5014
aS'704'
p5015
asS'Global X SuperIncome Preferred ETF'
p5016
(lp5017
S'USD'
p5018
aS'187'
p5019
aS'13.43'
p5020
aS'0.15'
p5021
aS'13.24'
p5022
aS'2476'
p5023
aS'20658'
p5024
aS'0.91'
p5025
aS'186'
p5026
asa(dp5027
S'KLP AksjeGlobal Indeks V'
p5028
(lp5029
S'NOK'
p5030
aS'7.6671'
p5031
aS'1055.69'
p5032
aS'8094'
p5033
aS'-0.07'
p5034
aS'1111.64'
p5035
aS'8523'
p5036
aS'5.30'
p5037
aS'429'
p5038
asS'KLP AksjeFremvoksende Markeder Indeks II'
p5039
(lp5040
S'NOK'
p5041
aS'3.7696'
p5042
aS'1514.75'
p5043
aS'5710'
p5044
aS'0.19'
p5045
aS'1601.75'
p5046
aS'6038'
p5047
aS'5.74'
p5048
aS'328'
p5049
asS'Global X MSCI SuperDividend EAFE ETF'
p5050
(lp5051
S'USD'
p5052
aS'153'
p5053
aS'15.83'
p5054
aS'0.00'
p5055
aS'16.18'
p5056
aS'2476'
p5057
aS'20517'
p5058
aS'-0.27'
p5059
aS'-55'
p5060
asS'Alfred Berg Gambak'
p5061
(lp5062
S'NOK'
p5063
aS'0.2821'
p5064
aS'23551.30'
p5065
aS'6644'
p5066
aS'-0.95'
p5067
aS'26473.09'
p5068
aS'7468'
p5069
aS'12.41'
p5070
aS'824'
p5071
asS'Delphi Nordic'
p5072
(lp5073
S'NOK'
p5074
aS'0.1871'
p5075
aS'29681.01'
p5076
aS'5553'
p5077
aS'-0.16'
p5078
aS'31921.89'
p5079
aS'5973'
p5080
aS'7.55'
p5081
aS'419'
p5082
asS'Global X SuperIncome Preferred ETF'
p5083
(lp5084
S'USD'
p5085
aS'187'
p5086
aS'13.43'
p5087
aS'-0.15'
p5088
aS'13.21'
p5089
aS'2470'
p5090
aS'20473'
p5091
aS'0.01'
p5092
aS'1'
asS'date'
p5093
(lp5094
F1487272634.3287759
aS'16.02.17'
p5095
asS'Alfred Berg Nordisk Eiendom C'
p5096
(lp5097
S'NOK'
p5098
aS'32.4782'
p5099
aS'109.36'
p5100
aS'3552'
p5101
aS'-0.01'
p5102
aS'111.68'
p5103
aS'3627'
p5104
aS'2.12'
p5105
aS'75'
p5106
asS'SKAGEN Focus A'
p5107
(lp5108
S'NOK'
p5109
aS'65.7933'
p5110
aS'98.57'
p5111
aS'6485'
p5112
aS'-0.04'
p5113
aS'109.23'
p5114
aS'7186'
p5115
aS'10.81'
p5116
aS'701'
p5117
asS'DNB Teknologi'
p5118
(lp5119
S'NOK'
p5120
aS'8.2022'
p5121
aS'949.68'
p5122
aS'7789'
p5123
aS'-0.20'
p5124
aS'1074.84'
p5125
aS'8816'
p5126
aS'13.18'
p5127
aS'1027'
p5128
asa(dp5129
S'DNB Teknologi'
p5130
(lp5131
S'NOK'
p5132
aS'8.2022'
p5133
aS'949.68'
p5134
aS'7789'
p5135
aS'0.17'
p5136
aS'1076.70'
p5137
aS'8831'
p5138
aS'13.38'
p5139
aS'1042'
p5140
asS'KLP AksjeGlobal Indeks V'
p5141
(lp5142
S'NOK'
p5143
aS'7.6671'
p5144
aS'1055.69'
p5145
aS'8094'
p5146
aS'-0.46'
p5147
aS'1106.52'
p5148
aS'8484'
p5149
aS'4.82'
p5150
aS'390'
p5151
asS'KLP AksjeFremvoksende Markeder Indeks II'
p5152
(lp5153
S'NOK'
p5154
aS'3.7696'
p5155
aS'1514.75'
p5156
aS'5710'
p5157
aS'-0.21'
p5158
aS'1598.33'
p5159
aS'6025'
p5160
aS'5.52'
p5161
aS'315'
p5162
asS'Global X MSCI SuperDividend EAFE ETF'
p5163
(lp5164
S'USD'
p5165
aS'153'
p5166
aS'15.83'
p5167
aS'0.00'
p5168
aS'16.07'
p5169
aS'2459'
p5170
aS'20521'
p5171
aS'-0.25'
p5172
aS'-51'
p5173
asS'Alfred Berg Gambak'
p5174
(lp5175
S'NOK'
p5176
aS'0.2821'
p5177
aS'23551.30'
p5178
aS'6644'
p5179
aS'-0.24'
p5180
aS'26410.67'
p5181
aS'7450'
p5182
aS'12.14'
p5183
aS'807'
p5184
asS'Delphi Nordic'
p5185
(lp5186
S'NOK'
p5187
aS'0.1871'
p5188
aS'29681.01'
p5189
aS'5553'
p5190
aS'-0.49'
p5191
aS'31764.29'
p5192
aS'5943'
p5193
aS'7.02'
p5194
aS'390'
p5195
asS'date'
p5196
(lp5197
F1487463155.170516
aS'19.02.17'
p5198
asS'Alfred Berg Nordisk Eiendom C'
p5199
(lp5200
S'NOK'
p5201
aS'32.4782'
p5202
aS'109.36'
p5203
aS'3552'
p5204
aS'0.16'
p5205
aS'111.86'
p5206
aS'3633'
p5207
aS'2.28'
p5208
aS'81'
p5209
asS'SKAGEN Focus A'
p5210
(lp5211
S'NOK'
p5212
aS'65.7933'
p5213
aS'98.57'
p5214
aS'6485'
p5215
aS'-0.75'
p5216
aS'108.47'
p5217
aS'7136'
p5218
aS'10.04'
p5219
aS'651'
p5220
asS'Global X SuperIncome Preferred ETF'
p5221
(lp5222
S'USD'
p5223
aS'187'
p5224
aS'13.43'
p5225
aS'0.08'
p5226
aS'13.21'
p5227
aS'2470'
p5228
aS'20617'
p5229
aS'0.71'
p5230
aS'146'
p5231
asa(dp5232
S'KLP AksjeGlobal Indeks V'
p5233
(lp5234
S'NOK'
p5235
aS'7.6671'
p5236
aS'1055.69'
p5237
aS'8094'
p5238
aS'0.36'
p5239
aS'1110.56'
p5240
aS'8515'
p5241
aS'5.20'
p5242
aS'421'
p5243
asS'KLP AksjeFremvoksende Markeder Indeks II'
p5244
(lp5245
S'NOK'
p5246
aS'3.7696'
p5247
aS'1514.75'
p5248
aS'5710'
p5249
aS'-0.30'
p5250
aS'1593.52'
p5251
aS'6007'
p5252
aS'5.20'
p5253
aS'297'
p5254
asS'Global X MSCI SuperDividend EAFE ETF'
p5255
(lp5256
S'USD'
p5257
aS'153'
p5258
aS'15.83'
p5259
aS'0.00'
p5260
aS'16.07'
p5261
aS'2459'
p5262
aS'20504'
p5263
aS'-0.33'
p5264
aS'-68'
p5265
asS'Alfred Berg Gambak'
p5266
(lp5267
S'NOK'
p5268
aS'0.2821'
p5269
aS'23551.30'
p5270
aS'6644'
p5271
aS'-0.86'
p5272
aS'26184.46'
p5273
aS'7387'
p5274
aS'11.18'
p5275
aS'743'
p5276
asS'Delphi Nordic'
p5277
(lp5278
S'NOK'
p5279
aS'0.1871'
p5280
aS'29681.01'
p5281
aS'5553'
p5282
aS'-0.03'
p5283
aS'31754.05'
p5284
aS'5941'
p5285
aS'6.98'
p5286
aS'388'
p5287
asS'Global X SuperIncome Preferred ETF'
p5288
(lp5289
S'USD'
p5290
aS'187'
p5291
aS'13.43'
p5292
aS'0.00'
p5293
aS'13.21'
p5294
aS'2470'
p5295
aS'20601'
p5296
aS'0.63'
p5297
aS'129'
p5298
asS'date'
p5299
(lp5300
F1487635389.517801
aS'21.02.17'
p5301
asS'Alfred Berg Nordisk Eiendom C'
p5302
(lp5303
S'NOK'
p5304
aS'32.4782'
p5305
aS'109.36'
p5306
aS'3552'
p5307
aS'-0.39'
p5308
aS'111.42'
p5309
aS'3619'
p5310
aS'1.88'
p5311
aS'67'
p5312
asS'SKAGEN Focus A'
p5313
(lp5314
S'NOK'
p5315
aS'65.7933'
p5316
aS'98.57'
p5317
aS'6485'
p5318
aS'-0.06'
p5319
aS'108.40'
p5320
aS'7132'
p5321
aS'9.98'
p5322
aS'647'
p5323
asS'DNB Teknologi'
p5324
(lp5325
S'NOK'
p5326
aS'8.2022'
p5327
aS'949.68'
p5328
aS'7789'
p5329
aS'-0.14'
p5330
aS'1075.23'
p5331
aS'8819'
p5332
aS'13.22'
p5333
aS'1030'
p5334
asa(dp5335
S'DNB Teknologi'
p5336
(lp5337
S'NOK'
p5338
aS'8.2022'
p5339
aS'949.68'
p5340
aS'7789'
p5341
aS'-0.06'
p5342
aS'1090.04'
p5343
aS'8941'
p5344
aS'14.78'
p5345
aS'1151'
p5346
asS'KLP AksjeGlobal Indeks V'
p5347
(lp5348
S'NOK'
p5349
aS'7.6671'
p5350
aS'1055.69'
p5351
aS'8094'
p5352
aS'-0.36'
p5353
aS'1114.24'
p5354
aS'8543'
p5355
aS'5.55'
p5356
aS'449'
p5357
asS'KLP AksjeFremvoksende Markeder Indeks II'
p5358
(lp5359
S'NOK'
p5360
aS'3.7696'
p5361
aS'1514.75'
p5362
aS'5710'
p5363
aS'-0.40'
p5364
aS'1613.70'
p5365
aS'6083'
p5366
aS'6.53'
p5367
aS'373'
p5368
asS'Global X MSCI SuperDividend EAFE ETF'
p5369
(lp5370
S'USD'
p5371
aS'153'
p5372
aS'15.83'
p5373
aS'0.00'
p5374
aS'15.84'
p5375
aS'2424'
p5376
aS'20272'
p5377
aS'-1.46'
p5378
aS'-299'
p5379
asS'Alfred Berg Gambak'
p5380
(lp5381
S'NOK'
p5382
aS'0.2821'
p5383
aS'23551.30'
p5384
aS'6644'
p5385
aS'-0.34'
p5386
aS'26390.39'
p5387
aS'7445'
p5388
aS'12.05'
p5389
aS'801'
p5390
asS'Delphi Nordic'
p5391
(lp5392
S'NOK'
p5393
aS'0.1871'
p5394
aS'29681.01'
p5395
aS'5553'
p5396
aS'-1.77'
p5397
aS'31366.66'
p5398
aS'5869'
p5399
aS'5.68'
p5400
aS'315'
p5401
asS'date'
p5402
(lp5403
F1488029100.8110039
aS'25.02.17'
p5404
asS'Alfred Berg Nordisk Eiendom C'
p5405
(lp5406
S'NOK'
p5407
aS'32.4782'
p5408
aS'109.36'
p5409
aS'3552'
p5410
aS'-0.87'
p5411
aS'110.01'
p5412
aS'3573'
p5413
aS'0.59'
p5414
aS'21'
p5415
asS'SKAGEN Focus A'
p5416
(lp5417
S'NOK'
p5418
aS'65.7933'
p5419
aS'98.57'
p5420
aS'6485'
p5421
aS'-1.25'
p5422
aS'108.55'
p5423
aS'7142'
p5424
aS'10.12'
p5425
aS'656'
p5426
asS'Global X SuperIncome Preferred ETF'
p5427
(lp5428
S'USD'
p5429
aS'187'
p5430
aS'13.43'
p5431
aS'0.08'
p5432
aS'13.24'
p5433
aS'2476'
p5434
aS'20710'
p5435
aS'1.17'
p5436
aS'239'
p5437
asa(dp5438
S'KLP AksjeGlobal Indeks V'
p5439
(lp5440
S'NOK'
p5441
aS'7.6671'
p5442
aS'1055.69'
p5443
aS'8094'
p5444
aS'-0.05'
p5445
aS'1113.66'
p5446
aS'8539'
p5447
aS'5.49'
p5448
aS'444'
p5449
asS'KLP AksjeFremvoksende Markeder Indeks II'
p5450
(lp5451
S'NOK'
p5452
aS'3.7696'
p5453
aS'1514.75'
p5454
aS'5710'
p5455
aS'-0.66'
p5456
aS'1602.99'
p5457
aS'6043'
p5458
aS'5.83'
p5459
aS'333'
p5460
asS'Global X MSCI SuperDividend EAFE ETF'
p5461
(lp5462
S'USD'
p5463
aS'153'
p5464
aS'15.83'
p5465
aS'0.00'
p5466
aS'15.90'
p5467
aS'2433'
p5468
aS'20373'
p5469
aS'-0.97'
p5470
aS'-199'
p5471
asS'Alfred Berg Gambak'
p5472
(lp5473
S'NOK'
p5474
aS'0.2821'
p5475
aS'23551.30'
p5476
aS'6644'
p5477
aS'-1.16'
p5478
aS'26085.34'
p5479
aS'7359'
p5480
aS'10.76'
p5481
aS'715'
p5482
asS'Delphi Nordic'
p5483
(lp5484
S'NOK'
p5485
aS'0.1871'
p5486
aS'29681.01'
p5487
aS'5553'
p5488
aS'-0.13'
p5489
aS'31326.79'
p5490
aS'5861'
p5491
aS'5.54'
p5492
aS'308'
p5493
asS'Global X SuperIncome Preferred ETF'
p5494
(lp5495
S'USD'
p5496
aS'187'
p5497
aS'13.43'
p5498
aS'0.08'
p5499
aS'13.24'
p5500
aS'2476'
p5501
aS'20735'
p5502
aS'1.29'
p5503
aS'263'
p5504
asS'date'
p5505
(lp5506
F1488286971.429245
aS'28.02.17'
p5507
asS'Alfred Berg Nordisk Eiendom C'
p5508
(lp5509
S'NOK'
p5510
aS'32.4782'
p5511
aS'109.36'
p5512
aS'3552'
p5513
aS'-0.98'
p5514
aS'108.93'
p5515
aS'3538'
p5516
aS'-0.40'
p5517
aS'-14'
p5518
asS'SKAGEN Focus A'
p5519
(lp5520
S'NOK'
p5521
aS'65.7933'
p5522
aS'98.57'
p5523
aS'6485'
p5524
aS'-0.03'
p5525
aS'108.52'
p5526
aS'7140'
p5527
aS'10.09'
p5528
aS'655'
p5529
asS'DNB Teknologi'
p5530
(lp5531
S'NOK'
p5532
aS'8.2022'
p5533
aS'949.68'
p5534
aS'7789'
p5535
aS'0.29'
p5536
aS'1090.30'
p5537
aS'8943'
p5538
aS'14.81'
p5539
aS'1153'
p5540
asa(dp5541
S'DNB Teknologi'
p5542
(lp5543
S'NOK'
p5544
aS'8.2022'
p5545
aS'949.68'
p5546
aS'7789'
p5547
aS'-0.12'
p5548
aS'1088.94'
p5549
aS'8932'
p5550
aS'14.66'
p5551
aS'1142'
p5552
asS'KLP AksjeGlobal Indeks V'
p5553
(lp5554
S'NOK'
p5555
aS'7.6671'
p5556
aS'1055.69'
p5557
aS'8094'
p5558
aS'-0.05'
p5559
aS'1114.36'
p5560
aS'8544'
p5561
aS'5.56'
p5562
aS'450'
p5563
asS'KLP AksjeFremvoksende Markeder Indeks II'
p5564
(lp5565
S'NOK'
p5566
aS'3.7696'
p5567
aS'1514.75'
p5568
aS'5710'
p5569
aS'-0.31'
p5570
aS'1593.92'
p5571
aS'6008'
p5572
aS'5.23'
p5573
aS'298'
p5574
asS'Global X MSCI SuperDividend EAFE ETF'
p5575
(lp5576
S'USD'
p5577
aS'153'
p5578
aS'15.83'
p5579
aS'0.00'
p5580
aS'15.97'
p5581
aS'2443'
p5582
aS'20523'
p5583
aS'-0.24'
p5584
aS'-49'
p5585
asS'Alfred Berg Gambak'
p5586
(lp5587
S'NOK'
p5588
aS'0.2821'
p5589
aS'23551.30'
p5590
aS'6644'
p5591
aS'0.28'
p5592
aS'26208.70'
p5593
aS'7393'
p5594
aS'11.28'
p5595
aS'750'
p5596
asS'Delphi Nordic'
p5597
(lp5598
S'NOK'
p5599
aS'0.1871'
p5600
aS'29681.01'
p5601
aS'5553'
p5602
aS'0.55'
p5603
aS'31498.22'
p5604
aS'5893'
p5605
aS'6.12'
p5606
aS'340'
p5607
asS'date'
p5608
(lp5609
F1488388596.5570271
aS'01.03.17'
p5610
asS'Alfred Berg Nordisk Eiendom C'
p5611
(lp5612
S'NOK'
p5613
aS'32.4782'
p5614
aS'109.36'
p5615
aS'3552'
p5616
aS'0.11'
p5617
aS'109.05'
p5618
aS'3542'
p5619
aS'-0.29'
p5620
aS'-10'
p5621
asS'SKAGEN Focus A'
p5622
(lp5623
S'NOK'
p5624
aS'66.7106'
p5625
aS'98.71'
p5626
aS'6585'
p5627
aS'0.46'
p5628
aS'109.02'
p5629
aS'7273'
p5630
aS'10.44'
p5631
aS'687'
p5632
asS'Global X SuperIncome Preferred ETF'
p5633
(lp5634
S'USD'
p5635
aS'187'
p5636
aS'13.43'
p5637
aS'-0.61'
p5638
aS'13.07'
p5639
aS'2444'
p5640
aS'20529'
p5641
aS'0.28'
p5642
aS'57'
p5643
asa(dp5644
S'KLP AksjeGlobal Indeks V'
p5645
(lp5646
S'NOK'
p5647
aS'8.0440'
p5648
aS'1058.44'
p5649
aS'8514'
p5650
aS'1.55'
p5651
aS'1131.58'
p5652
aS'9102'
p5653
aS'6.91'
p5654
aS'588'
p5655
asS'KLP AksjeFremvoksende Markeder Indeks II'
p5656
(lp5657
S'NOK'
p5658
aS'3.9439'
p5659
aS'1518.80'
p5660
aS'5990'
p5661
aS'0.78'
p5662
aS'1606.30'
p5663
aS'6335'
p5664
aS'5.76'
p5665
aS'345'
p5666
asS'Global X MSCI SuperDividend EAFE ETF'
p5667
(lp5668
S'USD'
p5669
aS'153'
p5670
aS'15.83'
p5671
aS'0.00'
p5672
aS'16.03'
p5673
aS'2453'
p5674
aS'20809'
p5675
aS'1.15'
p5676
aS'237'
p5677
asS'Alfred Berg Gambak'
p5678
(lp5679
S'NOK'
p5680
aS'0.2997'
p5681
aS'23703.11'
p5682
aS'7104'
p5683
aS'0.63'
p5684
aS'26374.42'
p5685
aS'7904'
p5686
aS'11.27'
p5687
aS'801'
p5688
asS'Delphi Nordic'
p5689
(lp5690
S'NOK'
p5691
aS'0.1927'
p5692
aS'29752.55'
p5693
aS'5733'
p5694
aS'0.64'
p5695
aS'32201.36'
p5696
aS'6205'
p5697
aS'8.23'
p5698
aS'472'
p5699
asS'Global X SuperIncome Preferred ETF'
p5700
(lp5701
S'USD'
p5702
aS'187'
p5703
aS'13.43'
p5704
aS'0.00'
p5705
aS'13.07'
p5706
aS'2444'
p5707
aS'20736'
p5708
aS'1.29'
p5709
aS'265'
p5710
asS'date'
p5711
(lp5712
F1488506363.503752
aS'03.03.17'
p5713
asS'Alfred Berg Nordisk Eiendom C'
p5714
(lp5715
S'NOK'
p5716
aS'33.3952'
p5717
aS'109.35'
p5718
aS'3652'
p5719
aS'-0.10'
p5720
aS'109.03'
p5721
aS'3641'
p5722
aS'-0.30'
p5723
aS'-11'
p5724
asS'SKAGEN Focus A'
p5725
(lp5726
S'NOK'
p5727
aS'66.7106'
p5728
aS'98.71'
p5729
aS'6585'
p5730
aS'0.19'
p5731
aS'110.48'
p5732
aS'7370'
p5733
aS'11.92'
p5734
aS'785'
p5735
asS'DNB Teknologi'
p5736
(lp5737
S'NOK'
p5738
aS'8.6246'
p5739
aS'956.50'
p5740
aS'8249'
p5741
aS'1.34'
p5742
aS'1103.53'
p5743
aS'9518'
p5744
aS'15.37'
p5745
aS'1268'
p5746
asa(dp5747
S'DNB Teknologi'
p5748
(lp5749
S'NOK'
p5750
aS'8.6246'
p5751
aS'956.50'
p5752
aS'8249'
p5753
aS'0.13'
p5754
aS'1109.48'
p5755
aS'9569'
p5756
aS'15.99'
p5757
aS'1319'
p5758
asS'KLP AksjeGlobal Indeks V'
p5759
(lp5760
S'NOK'
p5761
aS'8.0440'
p5762
aS'1058.44'
p5763
aS'8514'
p5764
aS'0.34'
p5765
aS'1135.43'
p5766
aS'9133'
p5767
aS'7.27'
p5768
aS'619'
p5769
asS'KLP AksjeFremvoksende Markeder Indeks II'
p5770
(lp5771
S'NOK'
p5772
aS'3.9439'
p5773
aS'1518.80'
p5774
aS'5990'
p5775
aS'0.54'
p5776
aS'1614.90'
p5777
aS'6369'
p5778
aS'6.33'
p5779
aS'379'
p5780
asS'Global X MSCI SuperDividend EAFE ETF'
p5781
(lp5782
S'USD'
p5783
aS'153'
p5784
aS'15.83'
p5785
aS'0.00'
p5786
aS'16.04'
p5787
aS'2454'
p5788
aS'20812'
p5789
aS'1.17'
p5790
aS'241'
p5791
asS'Alfred Berg Gambak'
p5792
(lp5793
S'NOK'
p5794
aS'0.2997'
p5795
aS'23703.11'
p5796
aS'7104'
p5797
aS'0.67'
p5798
aS'26552.40'
p5799
aS'7958'
p5800
aS'12.02'
p5801
aS'854'
p5802
asS'Delphi Nordic'
p5803
(lp5804
S'NOK'
p5805
aS'0.1927'
p5806
aS'29752.55'
p5807
aS'5733'
p5808
aS'-0.40'
p5809
aS'32071.87'
p5810
aS'6180'
p5811
aS'7.80'
p5812
aS'447'
p5813
asS'date'
p5814
(lp5815
F1488803069.447839
aS'06.03.17'
p5816
asS'Alfred Berg Nordisk Eiendom C'
p5817
(lp5818
S'NOK'
p5819
aS'33.3952'
p5820
aS'109.35'
p5821
aS'3652'
p5822
aS'-0.17'
p5823
aS'108.84'
p5824
aS'3635'
p5825
aS'-0.47'
p5826
aS'-17'
p5827
asS'SKAGEN Focus A'
p5828
(lp5829
S'NOK'
p5830
aS'66.7106'
p5831
aS'98.71'
p5832
aS'6585'
p5833
aS'-0.69'
p5834
aS'109.72'
p5835
aS'7319'
p5836
aS'11.15'
p5837
aS'734'
p5838
asS'Global X SuperIncome Preferred ETF'
p5839
(lp5840
S'USD'
p5841
aS'187'
p5842
aS'13.43'
p5843
aS'0.00'
p5844
aS'13.01'
p5845
aS'2433'
p5846
aS'20632'
p5847
aS'0.79'
p5848
aS'161'
p5849
asa(dp5850
S'KLP AksjeGlobal Indeks V'
p5851
(lp5852
S'NOK'
p5853
aS'8.0440'
p5854
aS'1058.44'
p5855
aS'8514'
p5856
aS'0.02'
p5857
aS'1135.66'
p5858
aS'9135'
p5859
aS'7.30'
p5860
aS'621'
p5861
asS'KLP AksjeFremvoksende Markeder Indeks II'
p5862
(lp5863
S'NOK'
p5864
aS'3.9439'
p5865
aS'1518.80'
p5866
aS'5990'
p5867
aS'-0.57'
p5868
aS'1605.67'
p5869
aS'6333'
p5870
aS'5.72'
p5871
aS'343'
p5872
asS'Global X MSCI SuperDividend EAFE ETF'
p5873
(lp5874
S'USD'
p5875
aS'153'
p5876
aS'15.83'
p5877
aS'0.00'
p5878
aS'16.06'
p5879
aS'2457'
p5880
aS'20786'
p5881
aS'1.04'
p5882
aS'214'
p5883
asS'Alfred Berg Gambak'
p5884
(lp5885
S'NOK'
p5886
aS'0.2997'
p5887
aS'23703.11'
p5888
aS'7104'
p5889
aS'-1.11'
p5890
aS'26257.86'
p5891
aS'7869'
p5892
aS'10.78'
p5893
aS'766'
p5894
asS'Delphi Nordic'
p5895
(lp5896
S'NOK'
p5897
aS'0.1927'
p5898
aS'29752.55'
p5899
aS'5733'
p5900
aS'0.21'
p5901
aS'32137.98'
p5902
aS'6193'
p5903
aS'8.02'
p5904
aS'460'
p5905
asS'Global X SuperIncome Preferred ETF'
p5906
(lp5907
S'USD'
p5908
aS'187'
p5909
aS'13.43'
p5910
aS'0.38'
p5911
aS'13.07'
p5912
aS'2444'
p5913
aS'20675'
p5914
aS'0.99'
p5915
aS'204'
p5916
asS'date'
p5917
(lp5918
F1488888387.1072681
aS'07.03.17'
p5919
asS'Alfred Berg Nordisk Eiendom C'
p5920
(lp5921
S'NOK'
p5922
aS'33.3952'
p5923
aS'109.35'
p5924
aS'3652'
p5925
aS'0.45'
p5926
aS'109.33'
p5927
aS'3651'
p5928
aS'-0.02'
p5929
aS'-1'
p5930
asS'SKAGEN Focus A'
p5931
(lp5932
S'NOK'
p5933
aS'66.7106'
p5934
aS'98.71'
p5935
aS'6585'
p5936
aS'-0.13'
p5937
aS'109.58'
p5938
aS'7310'
p5939
aS'11.01'
p5940
aS'725'
p5941
asS'DNB Teknologi'
p5942
(lp5943
S'NOK'
p5944
aS'8.6246'
p5945
aS'956.50'
p5946
aS'8249'
p5947
aS'-0.26'
p5948
aS'1106.56'
p5949
aS'9544'
p5950
aS'15.69'
p5951
aS'1294'
p5952
asa(dp5953
S'DNB Teknologi'
p5954
(lp5955
S'NOK'
p5956
aS'8.6246'
p5957
aS'956.50'
p5958
aS'8249'
p5959
aS'-0.35'
p5960
aS'1102.73'
p5961
aS'9511'
p5962
aS'15.29'
p5963
aS'1261'
p5964
asS'KLP AksjeGlobal Indeks V'
p5965
(lp5966
S'NOK'
p5967
aS'8.0440'
p5968
aS'1058.44'
p5969
aS'8514'
p5970
aS'-0.03'
p5971
aS'1135.35'
p5972
aS'9133'
p5973
aS'7.27'
p5974
aS'619'
p5975
asS'KLP AksjeFremvoksende Markeder Indeks II'
p5976
(lp5977
S'NOK'
p5978
aS'3.9439'
p5979
aS'1518.80'
p5980
aS'5990'
p5981
aS'0.50'
p5982
aS'1613.69'
p5983
aS'6364'
p5984
aS'6.25'
p5985
aS'374'
p5986
asS'Global X MSCI SuperDividend EAFE ETF'
p5987
(lp5988
S'USD'
p5989
aS'153'
p5990
aS'15.83'
p5991
aS'0.00'
p5992
aS'16.06'
p5993
aS'2457'
p5994
aS'20861'
p5995
aS'1.41'
p5996
aS'289'
p5997
asS'Alfred Berg Gambak'
p5998
(lp5999
S'NOK'
p6000
aS'0.2997'
p6001
aS'23703.11'
p6002
aS'7104'
p6003
aS'0.35'
p6004
aS'26093.96'
p6005
aS'7820'
p6006
aS'10.09'
p6007
aS'717'
p6008
asS'Delphi Nordic'
p6009
(lp6010
S'NOK'
p6011
aS'0.1927'
p6012
aS'29752.55'
p6013
aS'5733'
p6014
aS'-0.31'
p6015
aS'32038.05'
p6016
aS'6174'
p6017
aS'7.68'
p6018
aS'440'
p6019
asS'date'
p6020
(lp6021
F1488980222.9720931
aS'08.03.17'
p6022
asS'Alfred Berg Nordisk Eiendom C'
p6023
(lp6024
S'NOK'
p6025
aS'33.3952'
p6026
aS'109.35'
p6027
aS'3652'
p6028
aS'-1.27'
p6029
aS'107.94'
p6030
aS'3605'
p6031
aS'-1.29'
p6032
aS'-47'
p6033
asS'SKAGEN Focus A'
p6034
(lp6035
S'NOK'
p6036
aS'66.7106'
p6037
aS'98.71'
p6038
aS'6585'
p6039
aS'-0.67'
p6040
aS'108.84'
p6041
aS'7261'
p6042
aS'10.26'
p6043
aS'676'
p6044
asS'Global X SuperIncome Preferred ETF'
p6045
(lp6046
S'USD'
p6047
aS'187'
p6048
aS'13.43'
p6049
aS'0.00'
p6050
aS'13.00'
p6051
aS'2431'
p6052
aS'20639'
p6053
aS'0.82'
p6054
aS'168'
p6055
asa(dp6056
S'KLP AksjeGlobal Indeks V'
p6057
(lp6058
S'NOK'
p6059
aS'8.0440'
p6060
aS'1058.44'
p6061
aS'8514'
p6062
aS'0.11'
p6063
aS'1131.07'
p6064
aS'9098'
p6065
aS'6.86'
p6066
aS'584'
p6067
asS'KLP AksjeFremvoksende Markeder Indeks II'
p6068
(lp6069
S'NOK'
p6070
aS'3.9439'
p6071
aS'1518.80'
p6072
aS'5990'
p6073
aS'0.28'
p6074
aS'1618.96'
p6075
aS'6385'
p6076
aS'6.59'
p6077
aS'395'
p6078
asS'Global X MSCI SuperDividend EAFE ETF'
p6079
(lp6080
S'USD'
p6081
aS'153'
p6082
aS'15.83'
p6083
aS'0.00'
p6084
aS'15.89'
p6085
aS'2431'
p6086
aS'20883'
p6087
aS'1.51'
p6088
aS'311'
p6089
asS'Alfred Berg Gambak'
p6090
(lp6091
S'NOK'
p6092
aS'0.2997'
p6093
aS'23703.11'
p6094
aS'7104'
p6095
aS'0.03'
p6096
aS'26102.93'
p6097
aS'7823'
p6098
aS'10.12'
p6099
aS'719'
p6100
asS'Delphi Nordic'
p6101
(lp6102
S'NOK'
p6103
aS'0.1927'
p6104
aS'29752.55'
p6105
aS'5733'
p6106
aS'-0.11'
p6107
aS'32065.67'
p6108
aS'6179'
p6109
aS'7.77'
p6110
aS'446'
p6111
asS'Global X SuperIncome Preferred ETF'
p6112
(lp6113
S'USD'
p6114
aS'187'
p6115
aS'13.43'
p6116
aS'0.16'
p6117
aS'12.86'
p6118
aS'2405'
p6119
aS'20657'
p6120
aS'0.90'
p6121
aS'185'
p6122
asS'date'
p6123
(lp6124
F1489134602.0739801
aS'10.03.17'
p6125
asS'Alfred Berg Nordisk Eiendom C'
p6126
(lp6127
S'NOK'
p6128
aS'33.3952'
p6129
aS'109.35'
p6130
aS'3652'
p6131
aS'0.53'
p6132
aS'107.58'
p6133
aS'3593'
p6134
aS'-1.62'
p6135
aS'-59'
p6136
asS'SKAGEN Focus A'
p6137
(lp6138
S'NOK'
p6139
aS'66.7106'
p6140
aS'98.71'
p6141
aS'6585'
p6142
aS'0.59'
p6143
aS'110.20'
p6144
aS'7352'
p6145
aS'11.64'
p6146
aS'766'
p6147
asS'DNB Teknologi'
p6148
(lp6149
S'NOK'
p6150
aS'8.6246'
p6151
aS'956.50'
p6152
aS'8249'
p6153
aS'0.43'
p6154
aS'1107.44'
p6155
aS'9551'
p6156
aS'15.78'
p6157
aS'1302'
p6158
asa(dp6159
S'DNB Teknologi'
p6160
(lp6161
S'NOK'
p6162
aS'8.6246'
p6163
aS'956.50'
p6164
aS'8249'
p6165
aS'1.23'
p6166
aS'1134.49'
p6167
aS'9785'
p6168
aS'18.61'
p6169
aS'1535'
p6170
asS'KLP AksjeGlobal Indeks V'
p6171
(lp6172
S'NOK'
p6173
aS'8.0440'
p6174
aS'1058.44'
p6175
aS'8514'
p6176
aS'1.16'
p6177
aS'1144.20'
p6178
aS'9204'
p6179
aS'8.10'
p6180
aS'690'
p6181
asS'KLP AksjeFremvoksende Markeder Indeks II'
p6182
(lp6183
S'NOK'
p6184
aS'3.9439'
p6185
aS'1518.80'
p6186
aS'5990'
p6187
aS'-0.19'
p6188
aS'1615.88'
p6189
aS'6373'
p6190
aS'6.39'
p6191
aS'383'
p6192
asS'Global X MSCI SuperDividend EAFE ETF'
p6193
(lp6194
S'USD'
p6195
aS'153'
p6196
aS'15.83'
p6197
aS'0.00'
p6198
aS'16.20'
p6199
aS'2479'
p6200
aS'21231'
p6201
aS'3.20'
p6202
aS'659'
p6203
asS'Alfred Berg Gambak'
p6204
(lp6205
S'NOK'
p6206
aS'0.2997'
p6207
aS'23703.11'
p6208
aS'7104'
p6209
aS'0.64'
p6210
aS'26142.67'
p6211
aS'7835'
p6212
aS'10.29'
p6213
aS'731'
p6214
asS'Delphi Nordic'
p6215
(lp6216
S'NOK'
p6217
aS'0.1927'
p6218
aS'29752.55'
p6219
aS'5733'
p6220
aS'1.34'
p6221
aS'32495.10'
p6222
aS'6262'
p6223
aS'9.22'
p6224
aS'528'
p6225
asS'date'
p6226
(lp6227
F1489410647.603229
aS'13.03.17'
p6228
asS'Alfred Berg Nordisk Eiendom C'
p6229
(lp6230
S'NOK'
p6231
aS'33.3952'
p6232
aS'109.35'
p6233
aS'3652'
p6234
aS'0.04'
p6235
aS'107.62'
p6236
aS'3594'
p6237
aS'-1.59'
p6238
aS'-58'
p6239
asS'SKAGEN Focus A'
p6240
(lp6241
S'NOK'
p6242
aS'66.7106'
p6243
aS'98.71'
p6244
aS'6585'
p6245
aS'0.57'
p6246
aS'110.83'
p6247
aS'7394'
p6248
aS'12.28'
p6249
aS'808'
p6250
asS'Global X SuperIncome Preferred ETF'
p6251
(lp6252
S'USD'
p6253
aS'187'
p6254
aS'13.43'
p6255
aS'-0.31'
p6256
aS'12.86'
p6257
aS'2405'
p6258
aS'20599'
p6259
aS'0.62'
p6260
aS'128'
p6261
asa(dp6262
S'KLP AksjeGlobal Indeks V'
p6263
(lp6264
S'NOK'
p6265
aS'8.0440'
p6266
aS'1058.44'
p6267
aS'8514'
p6268
aS'-0.49'
p6269
aS'1147.79'
p6270
aS'9233'
p6271
aS'8.44'
p6272
aS'719'
p6273
asS'KLP AksjeFremvoksende Markeder Indeks II'
p6274
(lp6275
S'NOK'
p6276
aS'3.9439'
p6277
aS'1518.80'
p6278
aS'5990'
p6279
aS'0.62'
p6280
aS'1635.94'
p6281
aS'6452'
p6282
aS'7.71'
p6283
aS'462'
p6284
asS'yield'
p6285
(dp6286
S'Global X MSCI SuperDividend EAFE ETF'
p6287
F63
sS'Global X SuperIncome Preferred ETF'
p6288
F98.799999999999997
ssS'Global X MSCI SuperDividend EAFE ETF'
p6289
(lp6290
S'USD'
p6291
aS'153'
p6292
aS'15.83'
p6293
aS'0.00'
p6294
aS'16.26'
p6295
aS'2488'
p6296
aS'21444'
p6297
aS'4.24'
p6298
aS'872'
p6299
asS'Alfred Berg Gambak'
p6300
(lp6301
S'NOK'
p6302
aS'0.2997'
p6303
aS'23703.11'
p6304
aS'7104'
p6305
aS'0.37'
p6306
aS'26238.48'
p6307
aS'7864'
p6308
aS'10.70'
p6309
aS'760'
p6310
asS'Delphi Nordic'
p6311
(lp6312
S'NOK'
p6313
aS'0.1927'
p6314
aS'29752.55'
p6315
aS'5733'
p6316
aS'0.29'
p6317
aS'32590.30'
p6318
aS'6280'
p6319
aS'9.54'
p6320
aS'547'
p6321
asS'Global X SuperIncome Preferred ETF'
p6322
(lp6323
S'USD'
p6324
aS'187'
p6325
aS'13.43'
p6326
aS'0.00'
p6327
aS'12.90'
p6328
aS'2412'
p6329
aS'20793'
p6330
aS'1.57'
p6331
aS'322'
p6332
asS'date'
p6333
(lp6334
F1489501622.383492
aS'14.03.17'
p6335
asS'Alfred Berg Nordisk Eiendom C'
p6336
(lp6337
S'NOK'
p6338
aS'33.3952'
p6339
aS'109.35'
p6340
aS'3652'
p6341
aS'0.13'
p6342
aS'107.76'
p6343
aS'3599'
p6344
aS'-1.46'
p6345
aS'-53'
p6346
asS'SKAGEN Focus A'
p6347
(lp6348
S'NOK'
p6349
aS'66.7106'
p6350
aS'98.71'
p6351
aS'6585'
p6352
aS'0.04'
p6353
aS'110.87'
p6354
aS'7396'
p6355
aS'12.32'
p6356
aS'811'
p6357
asS'DNB Teknologi'
p6358
(lp6359
S'NOK'
p6360
aS'8.6246'
p6361
aS'956.50'
p6362
aS'8249'
p6363
aS'-0.33'
p6364
aS'1130.75'
p6365
aS'9752'
p6366
aS'18.22'
p6367
aS'1503'
p6368
asa(dp6369
S'KLP AksjeGlobal Indeks V'
p6370
(lp6371
S'NOK'
p6372
aS'8.0440'
p6373
aS'1058.44'
p6374
aS'8514'
p6375
aS'0.22'
p6376
aS'1150.34'
p6377
aS'9253'
p6378
aS'8.68'
p6379
aS'739'
p6380
asS'KLP AksjeFremvoksende Markeder Indeks II'
p6381
(lp6382
S'NOK'
p6383
aS'3.9439'
p6384
aS'1518.80'
p6385
aS'5990'
p6386
aS'0.79'
p6387
aS'1648.82'
p6388
aS'6503'
p6389
aS'8.56'
p6390
aS'513'
p6391
asS'Global X MSCI SuperDividend EAFE ETF'
p6392
(lp6393
S'USD'
p6394
aS'153'
p6395
aS'15.83'
p6396
aS'-0.12'
p6397
aS'16.24'
p6398
aS'2485'
p6399
aS'21119'
p6400
aS'2.66'
p6401
aS'547'
p6402
asS'Alfred Berg Gambak'
p6403
(lp6404
S'NOK'
p6405
aS'0.2997'
p6406
aS'23703.11'
p6407
aS'7104'
p6408
aS'-0.35'
p6409
aS'26145.74'
p6410
aS'7836'
p6411
aS'10.31'
p6412
aS'732'
p6413
asS'Delphi Nordic'
p6414
(lp6415
S'NOK'
p6416
aS'0.1927'
p6417
aS'29752.55'
p6418
aS'5733'
p6419
aS'0.69'
p6420
aS'32819.33'
p6421
aS'6324'
p6422
aS'10.31'
p6423
aS'591'
p6424
asS'Global X SuperIncome Preferred ETF'
p6425
(lp6426
S'USD'
p6427
aS'187'
p6428
aS'13.43'
p6429
aS'0.62'
p6430
aS'12.99'
p6431
aS'2429'
p6432
aS'20646'
p6433
aS'0.85'
p6434
aS'175'
p6435
asS'date'
p6436
(lp6437
F1489615275.166862
aS'15.03.17'
p6438
asS'Alfred Berg Nordisk Eiendom C'
p6439
(lp6440
S'NOK'
p6441
aS'22.3748'
p6442
aS'109.35'
p6443
aS'2447'
p6444
aS'-1.14'
p6445
aS'107.10'
p6446
aS'2396'
p6447
aS'-2.06'
p6448
aS'-50'
p6449
asS'SKAGEN Focus A'
p6450
(lp6451
S'NOK'
p6452
aS'66.7106'
p6453
aS'98.71'
p6454
aS'6585'
p6455
aS'0.20'
p6456
aS'112.06'
p6457
aS'7475'
p6458
aS'13.52'
p6459
aS'890'
p6460
asS'DNB Teknologi'
p6461
(lp6462
S'NOK'
p6463
aS'8.6246'
p6464
aS'956.50'
p6465
aS'8249'
p6466
aS'0.19'
p6467
aS'1132.86'
p6468
aS'9770'
p6469
aS'18.44'
p6470
aS'1521'
p6471
asa(dp6472
S'DNB Teknologi'
p6473
(lp6474
S'NOK'
p6475
aS'8.6246'
p6476
aS'956.50'
p6477
aS'8249'
p6478
aS'0.50'
p6479
aS'1138.56'
p6480
aS'9820'
p6481
aS'19.03'
p6482
aS'1570'
p6483
asS'KLP AksjeGlobal Indeks V'
p6484
(lp6485
S'NOK'
p6486
aS'8.0440'
p6487
aS'1058.44'
p6488
aS'8514'
p6489
aS'0.64'
p6490
aS'1157.66'
p6491
aS'9312'
p6492
aS'9.37'
p6493
aS'798'
p6494
asS'KLP AksjeFremvoksende Markeder Indeks II'
p6495
(lp6496
S'NOK'
p6497
aS'3.9439'
p6498
aS'1518.80'
p6499
aS'5990'
p6500
aS'0.43'
p6501
aS'1655.83'
p6502
aS'6530'
p6503
aS'9.02'
p6504
aS'540'
p6505
asS'Global X MSCI SuperDividend EAFE ETF'
p6506
(lp6507
S'USD'
p6508
aS'153'
p6509
aS'15.83'
p6510
aS'0.00'
p6511
aS'16.24'
p6512
aS'2485'
p6513
aS'21187'
p6514
aS'2.99'
p6515
aS'615'
p6516
asS'Alfred Berg Gambak'
p6517
(lp6518
S'NOK'
p6519
aS'0.2997'
p6520
aS'23703.11'
p6521
aS'7104'
p6522
aS'0.35'
p6523
aS'26237.61'
p6524
aS'7863'
p6525
aS'10.69'
p6526
aS'760'
p6527
asS'Delphi Nordic'
p6528
(lp6529
S'NOK'
p6530
aS'0.1927'
p6531
aS'29752.55'
p6532
aS'5733'
p6533
aS'0.77'
p6534
aS'33071.72'
p6535
aS'6373'
p6536
aS'11.16'
p6537
aS'640'
p6538
asS'date'
p6539
(lp6540
F1489689061.3841629
aS'16.03.17'
p6541
asS'Alfred Berg Nordisk Eiendom C'
p6542
(lp6543
S'NOK'
p6544
aS'22.3748'
p6545
aS'109.35'
p6546
aS'2447'
p6547
aS'2.06'
p6548
aS'109.31'
p6549
aS'2446'
p6550
aS'-0.04'
p6551
aS'-1'
p6552
asS'SKAGEN Focus A'
p6553
(lp6554
S'NOK'
p6555
aS'66.7106'
p6556
aS'98.71'
p6557
aS'6585'
p6558
aS'0.69'
p6559
aS'112.83'
p6560
aS'7527'
p6561
aS'14.30'
p6562
aS'942'
p6563
asS'Global X SuperIncome Preferred ETF'
p6564
(lp6565
S'USD'
p6566
aS'187'
p6567
aS'13.43'
p6568
aS'0.15'
p6569
aS'13.01'
p6570
aS'2433'
p6571
aS'20745'
p6572
aS'1.34'
p6573
aS'273'
p6574
asa(dp6575
S'KLP AksjeGlobal Indeks V'
p6576
(lp6577
S'NOK'
p6578
aS'8.0440'
p6579
aS'1058.44'
p6580
aS'8514'
p6581
aS'-0.41'
p6582
aS'1152.89'
p6583
aS'9274'
p6584
aS'8.92'
p6585
aS'760'
p6586
asS'KLP AksjeFremvoksende Markeder Indeks II'
p6587
(lp6588
S'NOK'
p6589
aS'3.9439'
p6590
aS'1518.80'
p6591
aS'5990'
p6592
aS'1.10'
p6593
aS'1674.10'
p6594
aS'6602'
p6595
aS'10.22'
p6596
aS'612'
p6597
asS'Global X MSCI SuperDividend EAFE ETF'
p6598
(lp6599
S'USD'
p6600
aS'153'
p6601
aS'15.83'
p6602
aS'0.00'
p6603
aS'16.48'
p6604
aS'2521'
p6605
aS'21398'
p6606
aS'4.01'
p6607
aS'826'
p6608
asS'Alfred Berg Gambak'
p6609
(lp6610
S'NOK'
p6611
aS'0.2997'
p6612
aS'23703.11'
p6613
aS'7104'
p6614
aS'0.30'
p6615
aS'26317.57'
p6616
aS'7887'
p6617
aS'11.03'
p6618
aS'784'
p6619
asS'Delphi Nordic'
p6620
(lp6621
S'NOK'
p6622
aS'0.1927'
p6623
aS'29752.55'
p6624
aS'5733'
p6625
aS'-0.25'
p6626
aS'32989.27'
p6627
aS'6357'
p6628
aS'10.88'
p6629
aS'624'
p6630
asS'Global X SuperIncome Preferred ETF'
p6631
(lp6632
S'USD'
p6633
aS'187'
p6634
aS'13.43'
p6635
aS'0.23'
p6636
aS'13.06'
p6637
aS'2442'
p6638
aS'20725'
p6639
aS'1.24'
p6640
aS'254'
p6641
asS'date'
p6642
(lp6643
F1490012299.364511
aS'20.03.17'
p6644
asS'Alfred Berg Nordisk Eiendom C'
p6645
(lp6646
S'NOK'
p6647
aS'11.1874'
p6648
aS'109.35'
p6649
aS'1223'
p6650
aS'0.48'
p6651
aS'109.83'
p6652
aS'1229'
p6653
aS'0.44'
p6654
aS'5'
asS'SKAGEN Focus A'
p6655
(lp6656
S'NOK'
p6657
aS'66.7106'
p6658
aS'98.71'
p6659
aS'6585'
p6660
aS'-0.92'
p6661
aS'111.79'
p6662
aS'7458'
p6663
aS'13.25'
p6664
aS'872'
p6665
asS'DNB Teknologi'
p6666
(lp6667
S'NOK'
p6668
aS'8.6246'
p6669
aS'956.50'
p6670
aS'8249'
p6671
aS'-0.54'
p6672
aS'1137.34'
p6673
aS'9809'
p6674
aS'18.91'
p6675
aS'1560'
p6676
asa(dp6677
S'DNB Teknologi'
p6678
(lp6679
S'NOK'
p6680
aS'8.6246'
p6681
aS'956.50'
p6682
aS'8249'
p6683
aS'0.06'
p6684
aS'1138.07'
p6685
aS'9815'
p6686
aS'18.98'
p6687
aS'1566'
p6688
asS'KLP AksjeGlobal Indeks V'
p6689
(lp6690
S'NOK'
p6691
aS'8.0440'
p6692
aS'1058.44'
p6693
aS'8514'
p6694
aS'-0.66'
p6695
aS'1145.22'
p6696
aS'9212'
p6697
aS'8.20'
p6698
aS'698'
p6699
asS'KLP AksjeFremvoksende Markeder Indeks II'
p6700
(lp6701
S'NOK'
p6702
aS'3.9439'
p6703
aS'1518.80'
p6704
aS'5990'
p6705
aS'-0.38'
p6706
aS'1667.81'
p6707
aS'6578'
p6708
aS'9.81'
p6709
aS'588'
p6710
asS'Global X MSCI SuperDividend EAFE ETF'
p6711
(lp6712
S'USD'
p6713
aS'153'
p6714
aS'15.83'
p6715
aS'0.00'
p6716
aS'16.38'
p6717
aS'2506'
p6718
aS'21147'
p6719
aS'2.79'
p6720
aS'575'
p6721
asS'Alfred Berg Gambak'
p6722
(lp6723
S'NOK'
p6724
aS'0.2997'
p6725
aS'23703.11'
p6726
aS'7104'
p6727
aS'0.20'
p6728
aS'26369.36'
p6729
aS'7903'
p6730
aS'11.25'
p6731
aS'799'
p6732
asS'Delphi Nordic'
p6733
(lp6734
S'NOK'
p6735
aS'0.1927'
p6736
aS'29752.55'
p6737
aS'5733'
p6738
aS'0.19'
p6739
aS'33050.45'
p6740
aS'6369'
p6741
aS'11.08'
p6742
aS'636'
p6743
asS'date'
p6744
(lp6745
F1490096642.196182
aS'21.03.17'
p6746
asS'Alfred Berg Nordisk Eiendom C'
p6747
(lp6748
S'NOK'
p6749
aS'11.1874'
p6750
aS'109.35'
p6751
aS'1223'
p6752
aS'0.13'
p6753
aS'109.97'
p6754
aS'1230'
p6755
aS'0.56'
p6756
aS'7'
asS'SKAGEN Focus A'
p6757
(lp6758
S'NOK'
p6759
aS'66.7106'
p6760
aS'98.71'
p6761
aS'6585'
p6762
aS'-0.21'
p6763
aS'111.55'
p6764
aS'7442'
p6765
aS'13.00'
p6766
aS'856'
p6767
asS'Global X SuperIncome Preferred ETF'
p6768
(lp6769
S'USD'
p6770
aS'187'
p6771
aS'13.43'
p6772
aS'0.00'
p6773
aS'13.02'
p6774
aS'2435'
p6775
aS'20544'
p6776
aS'0.35'
p6777
aS'73'
p6778
asa(dp6779
S'KLP AksjeGlobal Indeks V'
p6780
(lp6781
S'NOK'
p6782
aS'8.0440'
p6783
aS'1058.44'
p6784
aS'8514'
p6785
aS'-0.15'
p6786
aS'1132.90'
p6787
aS'9113'
p6788
aS'7.03'
p6789
aS'599'
p6790
asS'KLP AksjeFremvoksende Markeder Indeks II'
p6791
(lp6792
S'NOK'
p6793
aS'3.9439'
p6794
aS'1518.80'
p6795
aS'5990'
p6796
aS'-0.55'
p6797
aS'1670.44'
p6798
aS'6588'
p6799
aS'9.98'
p6800
aS'598'
p6801
asS'Global X MSCI SuperDividend EAFE ETF'
p6802
(lp6803
S'USD'
p6804
aS'153'
p6805
aS'15.83'
p6806
aS'0.00'
p6807
aS'16.28'
p6808
aS'2491'
p6809
aS'21147'
p6810
aS'2.80'
p6811
aS'575'
p6812
asS'Alfred Berg Gambak'
p6813
(lp6814
S'NOK'
p6815
aS'0.2997'
p6816
aS'23703.11'
p6817
aS'7104'
p6818
aS'-1.16'
p6819
aS'25969.03'
p6820
aS'7783'
p6821
aS'9.56'
p6822
aS'679'
p6823
asS'Delphi Nordic'
p6824
(lp6825
S'NOK'
p6826
aS'0.1927'
p6827
aS'29752.55'
p6828
aS'5733'
p6829
aS'1.00'
p6830
aS'32867.66'
p6831
aS'6334'
p6832
aS'10.47'
p6833
aS'600'
p6834
asS'date'
p6835
(lp6836
F1490354319.351778
aS'24.03.17'
p6837
asS'Global X SuperIncome Preferred ETF'
p6838
(lp6839
S'USD'
p6840
aS'187'
p6841
aS'13.43'
p6842
aS'0.00'
p6843
aS'12.91'
p6844
aS'2414'
p6845
aS'20496'
p6846
aS'0.12'
p6847
aS'25'
p6848
asS'SKAGEN Focus A'
p6849
(lp6850
S'NOK'
p6851
aS'66.7106'
p6852
aS'98.71'
p6853
aS'6585'
p6854
aS'0.06'
p6855
aS'110.05'
p6856
aS'7342'
p6857
aS'11.49'
p6858
aS'757'
p6859
asS'DNB Teknologi'
p6860
(lp6861
S'NOK'
p6862
aS'8.6246'
p6863
aS'956.50'
p6864
aS'8249'
p6865
aS'0.23'
p6866
aS'1127.45'
p6867
aS'9724'
p6868
aS'17.87'
p6869
aS'1474'
p6870
asa(dp6871
S'KLP AksjeGlobal Indeks V'
p6872
(lp6873
S'NOK'
p6874
aS'8.0440'
p6875
aS'1058.44'
p6876
aS'8514'
p6877
aS'0.31'
p6878
aS'1136.44'
p6879
aS'9142'
p6880
aS'7.37'
p6881
aS'627'
p6882
asS'KLP AksjeFremvoksende Markeder Indeks II'
p6883
(lp6884
S'NOK'
p6885
aS'3.9439'
p6886
aS'1518.80'
p6887
aS'5990'
p6888
aS'0.27'
p6889
aS'1674.89'
p6890
aS'6606'
p6891
aS'10.28'
p6892
aS'616'
p6893
asS'Global X MSCI SuperDividend EAFE ETF'
p6894
(lp6895
S'USD'
p6896
aS'153'
p6897
aS'15.83'
p6898
aS'0.00'
p6899
aS'16.28'
p6900
aS'2491'
p6901
aS'21076'
p6902
aS'2.45'
p6903
aS'504'
p6904
asS'Alfred Berg Gambak'
p6905
(lp6906
S'NOK'
p6907
aS'0.2997'
p6908
aS'23703.11'
p6909
aS'7104'
p6910
aS'0.19'
p6911
aS'26019.30'
p6912
aS'7798'
p6913
aS'9.77'
p6914
aS'694'
p6915
asS'Delphi Nordic'
p6916
(lp6917
S'NOK'
p6918
aS'0.1927'
p6919
aS'29752.55'
p6920
aS'5733'
p6921
aS'0.34'
p6922
aS'32979.74'
p6923
aS'6355'
p6924
aS'10.85'
p6925
aS'622'
p6926
asS'date'
p6927
(lp6928
F1490611933.4028721
aS'27.03.17'
p6929
asS'DNB Teknologi'
p6930
(lp6931
S'NOK'
p6932
aS'8.6246'
p6933
aS'956.50'
p6934
aS'8249'
p6935
aS'0.34'
p6936
aS'1131.26'
p6937
aS'9757'
p6938
aS'18.27'
p6939
aS'1507'
p6940
asS'SKAGEN Focus A'
p6941
(lp6942
S'NOK'
p6943
aS'66.7106'
p6944
aS'98.71'
p6945
aS'6585'
p6946
aS'0.45'
p6947
aS'110.54'
p6948
aS'7374'
p6949
aS'11.98'
p6950
aS'789'
p6951
asS'Global X SuperIncome Preferred ETF'
p6952
(lp6953
S'USD'
p6954
aS'187'
p6955
aS'13.43'
p6956
aS'0.00'
p6957
aS'12.99'
p6958
aS'2429'
p6959
aS'20554'
p6960
aS'0.40'
p6961
aS'83'
p6962
asa(dp6963
S'KLP AksjeGlobal Indeks V'
p6964
(lp6965
S'NOK'
p6966
aS'8.0440'
p6967
aS'1058.44'
p6968
aS'8514'
p6969
aS'-0.25'
p6970
aS'1135.93'
p6971
aS'9137'
p6972
aS'7.32'
p6973
aS'623'
p6974
asS'KLP AksjeFremvoksende Markeder Indeks II'
p6975
(lp6976
S'NOK'
p6977
aS'3.9439'
p6978
aS'1518.80'
p6979
aS'5990'
p6980
aS'-0.57'
p6981
aS'1669.65'
p6982
aS'6585'
p6983
aS'9.93'
p6984
aS'595'
p6985
asS'Global X MSCI SuperDividend EAFE ETF'
p6986
(lp6987
S'USD'
p6988
aS'153'
p6989
aS'15.83'
p6990
aS'0.00'
p6991
aS'16.42'
p6992
aS'2512'
p6993
aS'21371'
p6994
aS'3.88'
p6995
aS'799'
p6996
asS'Alfred Berg Gambak'
p6997
(lp6998
S'NOK'
p6999
aS'0.2997'
p7000
aS'23703.11'
p7001
aS'7104'
p7002
aS'-2.49'
p7003
aS'25275.79'
p7004
aS'7575'
p7005
aS'6.63'
p7006
aS'471'
p7007
asS'Delphi Nordic'
p7008
(lp7009
S'NOK'
p7010
aS'0.1927'
p7011
aS'29752.55'
p7012
aS'5733'
p7013
aS'-1.12'
p7014
aS'32610.53'
p7015
aS'6284'
p7016
aS'9.61'
p7017
aS'551'
p7018
asS'date'
p7019
(lp7020
F1490709204.388361
aS'28.03.17'
p7021
asS'Global X SuperIncome Preferred ETF'
p7022
(lp7023
S'USD'
p7024
aS'187'
p7025
aS'13.43'
p7026
aS'0.31'
p7027
aS'12.97'
p7028
aS'2425'
p7029
aS'20632'
p7030
aS'0.78'
p7031
aS'160'
p7032
asS'SKAGEN Focus A'
p7033
(lp7034
S'NOK'
p7035
aS'66.7106'
p7036
aS'98.71'
p7037
aS'6585'
p7038
aS'0.03'
p7039
aS'110.58'
p7040
aS'7377'
p7041
aS'12.02'
p7042
aS'791'
p7043
asS'DNB Teknologi'
p7044
(lp7045
S'NOK'
p7046
aS'8.6246'
p7047
aS'956.50'
p7048
aS'8249'
p7049
aS'0.08'
p7050
aS'1132.16'
p7051
aS'9764'
p7052
aS'18.36'
p7053
aS'1515'
p7054
asa(dp7055
S'KLP AksjeGlobal Indeks V'
p7056
(lp7057
S'NOK'
p7058
aS'8.0440'
p7059
aS'1058.44'
p7060
aS'8514'
p7061
aS'1.02'
p7062
aS'1147.54'
p7063
aS'9231'
p7064
aS'8.42'
p7065
aS'717'
p7066
asS'KLP AksjeFremvoksende Markeder Indeks II'
p7067
(lp7068
S'NOK'
p7069
aS'3.9439'
p7070
aS'1518.80'
p7071
aS'5990'
p7072
aS'0.73'
p7073
aS'1681.85'
p7074
aS'6633'
p7075
aS'10.74'
p7076
aS'643'
p7077
asS'Global X MSCI SuperDividend EAFE ETF'
p7078
(lp7079
S'USD'
p7080
aS'153'
p7081
aS'15.83'
p7082
aS'0.00'
p7083
aS'16.53'
p7084
aS'2529'
p7085
aS'21583'
p7086
aS'4.92'
p7087
aS'1'
asS'Alfred Berg Gambak'
p7088
(lp7089
S'NOK'
p7090
aS'0.2997'
p7091
aS'23703.11'
p7092
aS'7104'
p7093
aS'0.91'
p7094
aS'25505.00'
p7095
aS'7644'
p7096
aS'7.60'
p7097
aS'540'
p7098
asS'Delphi Nordic'
p7099
(lp7100
S'NOK'
p7101
aS'0.1927'
p7102
aS'29752.55'
p7103
aS'5733'
p7104
aS'0.50'
p7105
aS'32772.03'
p7106
aS'6315'
p7107
aS'10.15'
p7108
aS'582'
p7109
asS'date'
p7110
(lp7111
F1490798139.4350491
aS'29.03.17'
p7112
asS'DNB Teknologi'
p7113
(lp7114
S'NOK'
p7115
aS'9.1167'
p7116
aS'966.29'
p7117
aS'8809'
p7118
aS'0.51'
p7119
aS'1137.92'
p7120
aS'10374'
p7121
aS'17.76'
p7122
aS'1565'
p7123
asS'SKAGEN Focus A'
p7124
(lp7125
S'NOK'
p7126
aS'67.7857'
p7127
aS'98.92'
p7128
aS'6705'
p7129
aS'0.94'
p7130
aS'111.62'
p7131
aS'7566'
p7132
aS'12.84'
p7133
aS'861'
p7134
asS'Global X SuperIncome Preferred ETF'
p7135
(lp7136
S'USD'
p7137
aS'187'
p7138
aS'13.43'
p7139
aS'-0.08'
p7140
aS'12.98'
p7141
aS'2427'
p7142
aS'20714'
p7143
aS'1.18'
p7144
aS'243'
p7145
asa(dp7146
S'KLP AksjeGlobal Indeks V'
p7147
(lp7148
S'NOK'
p7149
aS'8.4100'
p7150
aS'1062.32'
p7151
aS'8934'
p7152
aS'0.38'
p7153
aS'1151.89'
p7154
aS'9687'
p7155
aS'8.43'
p7156
aS'753'
p7157
asS'KLP AksjeFremvoksende Markeder Indeks II'
p7158
(lp7159
S'NOK'
p7160
aS'4.1213'
p7161
aS'1526.22'
p7162
aS'6290'
p7163
aS'0.56'
p7164
aS'1691.25'
p7165
aS'6970'
p7166
aS'10.81'
p7167
aS'680'
p7168
asS'Global X MSCI SuperDividend EAFE ETF'
p7169
(lp7170
S'USD'
p7171
aS'153'
p7172
aS'15.83'
p7173
aS'0.00'
p7174
aS'16.49'
p7175
aS'2523'
p7176
aS'21667'
p7177
aS'5.32'
p7178
aS'1'
asS'Alfred Berg Gambak'
p7179
(lp7180
S'NOK'
p7181
aS'0.3154'
p7182
aS'23791.45'
p7183
aS'7504'
p7184
aS'-0.38'
p7185
aS'25409.30'
p7186
aS'8014'
p7187
aS'6.80'
p7188
aS'510'
p7189
asS'Delphi Nordic'
p7190
(lp7191
S'NOK'
p7192
aS'0.1988'
p7193
aS'29845.66'
p7194
aS'5933'
p7195
aS'0.59'
p7196
aS'33009.79'
p7197
aS'6562'
p7198
aS'10.60'
p7199
aS'629'
p7200
asS'date'
p7201
(lp7202
F1490951929.265449
aS'31.03.17'
p7203
asS'Global X SuperIncome Preferred ETF'
p7204
(lp7205
S'USD'
p7206
aS'187'
p7207
aS'13.43'
p7208
aS'0.00'
p7209
aS'13.07'
p7210
aS'2444'
p7211
aS'20990'
p7212
aS'2.53'
p7213
aS'518'
p7214
asS'SKAGEN Focus A'
p7215
(lp7216
S'NOK'
p7217
aS'67.7857'
p7218
aS'98.92'
p7219
aS'6705'
p7220
aS'-0.29'
p7221
aS'112.15'
p7222
aS'7602'
p7223
aS'13.38'
p7224
aS'897'
p7225
asS'DNB Teknologi'
p7226
(lp7227
S'NOK'
p7228
aS'9.1167'
p7229
aS'966.30'
p7230
aS'8809'
p7231
aS'0.49'
p7232
aS'1143.46'
p7233
aS'10425'
p7234
aS'18.33'
p7235
aS'1615'
p7236
asa(dp7237
S'KLP AksjeGlobal Indeks V'
p7238
(lp7239
S'NOK'
p7240
aS'8.4100'
p7241
aS'1062.32'
p7242
aS'8934'
p7243
aS'0.26'
p7244
aS'1157.79'
p7245
aS'9737'
p7246
aS'8.99'
p7247
aS'803'
p7248
asS'KLP AksjeFremvoksende Markeder Indeks II'
p7249
(lp7250
S'NOK'
p7251
aS'4.1213'
p7252
aS'1526.22'
p7253
aS'6290'
p7254
aS'-0.58'
p7255
aS'1678.31'
p7256
aS'6917'
p7257
aS'9.97'
p7258
aS'627'
p7259
asS'Global X MSCI SuperDividend EAFE ETF'
p7260
(lp7261
S'USD'
p7262
aS'153'
p7263
aS'15.83'
p7264
aS'0.00'
p7265
aS'16.50'
p7266
aS'2524'
p7267
aS'21692'
p7268
aS'5.45'
p7269
aS'1'
asS'Alfred Berg Gambak'
p7270
(lp7271
S'NOK'
p7272
aS'0.3154'
p7273
aS'23791.45'
p7274
aS'7504'
p7275
aS'-1.23'
p7276
aS'25276.75'
p7277
aS'7972'
p7278
aS'6.24'
p7279
aS'468'
p7280
asS'Delphi Nordic'
p7281
(lp7282
S'NOK'
p7283
aS'0.1988'
p7284
aS'29845.66'
p7285
aS'5933'
p7286
aS'-0.13'
p7287
aS'32990.27'
p7288
aS'6558'
p7289
aS'10.54'
p7290
aS'625'
p7291
asS'date'
p7292
(lp7293
F1491244188.8659201
aS'03.04.17'
p7294
asS'DNB Teknologi'
p7295
(lp7296
S'NOK'
p7297
aS'9.1167'
p7298
aS'966.30'
p7299
aS'8809'
p7300
aS'0.79'
p7301
aS'1160.62'
p7302
aS'10581'
p7303
aS'20.11'
p7304
aS'1772'
p7305
asS'SKAGEN Focus A'
p7306
(lp7307
S'NOK'
p7308
aS'67.7857'
p7309
aS'98.92'
p7310
aS'6705'
p7311
aS'0.54'
p7312
aS'112.75'
p7313
aS'7643'
p7314
aS'13.99'
p7315
aS'938'
p7316
asS'Global X SuperIncome Preferred ETF'
p7317
(lp7318
S'USD'
p7319
aS'187'
p7320
aS'13.43'
p7321
aS'-0.54'
p7322
aS'13.01'
p7323
aS'2433'
p7324
aS'20905'
p7325
aS'2.12'
p7326
aS'433'
p7327
asa(dp7328
S'KLP AksjeGlobal Indeks V'
p7329
(lp7330
S'NOK'
p7331
aS'8.4100'
p7332
aS'1062.32'
p7333
aS'8934'
p7334
aS'-0.15'
p7335
aS'1156.07'
p7336
aS'9723'
p7337
aS'8.83'
p7338
aS'788'
p7339
asS'KLP AksjeFremvoksende Markeder Indeks II'
p7340
(lp7341
S'NOK'
p7342
aS'4.1213'
p7343
aS'1526.22'
p7344
aS'6290'
p7345
aS'0.81'
p7346
aS'1691.83'
p7347
aS'6973'
p7348
aS'10.85'
p7349
aS'683'
p7350
asS'Global X MSCI SuperDividend EAFE ETF'
p7351
(lp7352
S'USD'
p7353
aS'153'
p7354
aS'15.83'
p7355
aS'-0.73'
p7356
aS'16.38'
p7357
aS'2506'
p7358
aS'21548'
p7359
aS'4.74'
p7360
aS'976'
p7361
asS'Alfred Berg Gambak'
p7362
(lp7363
S'NOK'
p7364
aS'0.3154'
p7365
aS'23791.45'
p7366
aS'7504'
p7367
aS'0.81'
p7368
aS'25481.83'
p7369
aS'8037'
p7370
aS'7.10'
p7371
aS'533'
p7372
asS'Delphi Nordic'
p7373
(lp7374
S'NOK'
p7375
aS'0.1988'
p7376
aS'29845.66'
p7377
aS'5933'
p7378
aS'-0.17'
p7379
aS'32933.08'
p7380
aS'6547'
p7381
aS'10.34'
p7382
aS'614'
p7383
asS'date'
p7384
(lp7385
F1491331587.7865319
aS'04.04.17'
p7386
asS'Global X SuperIncome Preferred ETF'
p7387
(lp7388
S'USD'
p7389
aS'187'
p7390
aS'13.43'
p7391
aS'0.00'
p7392
aS'13.04'
p7393
aS'2438'
p7394
aS'20966'
p7395
aS'2.41'
p7396
aS'494'
p7397
asS'SKAGEN Focus A'
p7398
(lp7399
S'NOK'
p7400
aS'67.7857'
p7401
aS'98.92'
p7402
aS'6705'
p7403
aS'-0.21'
p7404
aS'112.11'
p7405
aS'7600'
p7406
aS'13.34'
p7407
aS'894'
p7408
asS'DNB Teknologi'
p7409
(lp7410
S'NOK'
p7411
aS'9.1167'
p7412
aS'966.30'
p7413
aS'8809'
p7414
aS'-0.31'
p7415
aS'1156.98'
p7416
aS'10548'
p7417
aS'19.73'
p7418
aS'1738'
p7419
asa.